---
triple:          'arm64-apple-darwin'
binary-path:     profile_als
relocations:
  - { offset: 0x1E, size: 0x8, addend: 0x0, symName: __ZN11profile_als13gramian_basic17hc263e78784ba7549E, symObjAddr: 0x0, symBinAddr: 0x100000888, symSize: 0x110 }
  - { offset: 0x2F24, size: 0x8, addend: 0x0, symName: __ZN11profile_als13gramian_basic17hc263e78784ba7549E, symObjAddr: 0x0, symBinAddr: 0x100000888, symSize: 0x110 }
  - { offset: 0x381A, size: 0x8, addend: 0x0, symName: __ZN11profile_als17solve_one_side_cg17h517a4e10e9798919E, symObjAddr: 0x110, symBinAddr: 0x100000998, symSize: 0x14B0 }
  - { offset: 0x56A9, size: 0x8, addend: 0x0, symName: __ZN11profile_als4main17h2b58f3116ad04335E, symObjAddr: 0x15C0, symBinAddr: 0x100001E48, symSize: 0x8F8 }
  - { offset: 0xA479, size: 0x8, addend: 0x0, symName: _anon.ea38d61fbb5679421cf7f0ac284ea7dc.0, symObjAddr: 0x3B0, symBinAddr: 0x100044190, symSize: 0x0 }
  - { offset: 0xA50D, size: 0x8, addend: 0x0, symName: '__ZN3std2rt10lang_start28_$u7b$$u7b$closure$u7d$$u7d$17h16d33f3709e2606eE', symObjAddr: 0x60, symBinAddr: 0x100002780, symSize: 0x1C }
  - { offset: 0xA55C, size: 0x8, addend: 0x0, symName: __ZN3std3sys9backtrace28__rust_begin_short_backtrace17hf9cbcc0206368d4aE, symObjAddr: 0x7C, symBinAddr: 0x10000279C, symSize: 0x14 }
  - { offset: 0xAB2F, size: 0x8, addend: 0x0, symName: '__ZN4core3ops8function6FnOnce40call_once$u7b$$u7b$vtable.shim$u7d$$u7d$17h78d29a83dcb49ad4E', symObjAddr: 0x90, symBinAddr: 0x1000027B0, symSize: 0x1C }
  - { offset: 0xB8EB, size: 0x8, addend: 0x0, symName: '__ZN5alloc7raw_vec19RawVec$LT$T$C$A$GT$8grow_one17h35ce4ca4ebdd09f1E', symObjAddr: 0xAC, symBinAddr: 0x100032394, symSize: 0x60 }
  - { offset: 0xBD1A, size: 0x8, addend: 0x0, symName: '__ZN5alloc7raw_vec20RawVecInner$LT$A$GT$11finish_grow17h6299361ff8d2c3c7E', symObjAddr: 0x10C, symBinAddr: 0x1000323F4, symSize: 0x98 }
  - { offset: 0xC0A5, size: 0x8, addend: 0x0, symName: __RNvCsdBezzDwma51_7___rustc10rust_panic, symObjAddr: 0x0, symBinAddr: 0x10003248C, symSize: 0x48 }
  - { offset: 0xC0BC, size: 0x8, addend: 0x0, symName: __RNvCsdBezzDwma51_7___rustc10rust_panic, symObjAddr: 0x0, symBinAddr: 0x10003248C, symSize: 0x48 }
  - { offset: 0xC0D6, size: 0x8, addend: 0x0, symName: __RNvCsdBezzDwma51_7___rustc17___rust_drop_panic, symObjAddr: 0x174, symBinAddr: 0x100002908, symSize: 0x118 }
  - { offset: 0xC3A4, size: 0x8, addend: 0x0, symName: __RNvCsdBezzDwma51_7___rustc17rust_begin_unwind, symObjAddr: 0x28C, symBinAddr: 0x100002A20, symSize: 0x20 }
  - { offset: 0xC3D4, size: 0x8, addend: 0x0, symName: __RNvCsdBezzDwma51_7___rustc24___rust_foreign_exception, symObjAddr: 0x33C, symBinAddr: 0x100002AD0, symSize: 0x118 }
  - { offset: 0xC70C, size: 0x8, addend: 0x0, symName: __ZN3std9panicking11panic_count17is_zero_slow_path17h055803fbeed74640E, symObjAddr: 0x21950, symBinAddr: 0x100032DCC, symSize: 0x2C }
  - { offset: 0xC7B8, size: 0x8, addend: 0x0, symName: __ZN3std9panicking11panic_count8increase17hd554d387b728ef7eE, symObjAddr: 0x219E0, symBinAddr: 0x10000DFFC, symSize: 0x64 }
  - { offset: 0xC7CF, size: 0x8, addend: 0x0, symName: __ZN3std9panicking11panic_count8increase17hd554d387b728ef7eE, symObjAddr: 0x219E0, symBinAddr: 0x10000DFFC, symSize: 0x64 }
  - { offset: 0xC7E4, size: 0x8, addend: 0x0, symName: __ZN3std9panicking11panic_count8increase17hd554d387b728ef7eE, symObjAddr: 0x219E0, symBinAddr: 0x10000DFFC, symSize: 0x64 }
  - { offset: 0xC9A8, size: 0x8, addend: 0x0, symName: '__ZN3std9panicking12default_hook28_$u7b$$u7b$closure$u7d$$u7d$17h49a8add86c9a65d5E', symObjAddr: 0x21BE4, symBinAddr: 0x10000E19C, symSize: 0x134 }
  - { offset: 0xCAD7, size: 0x8, addend: 0x0, symName: __ZN3std9panicking12default_hook17h5bd341aa6d010dc8E, symObjAddr: 0x21AA8, symBinAddr: 0x10000E060, symSize: 0x13C }
  - { offset: 0xCC5F, size: 0x8, addend: 0x0, symName: '__ZN3std9panicking13panic_handler28_$u7b$$u7b$closure$u7d$$u7d$17h24ca9bac65f2240fE', symObjAddr: 0x21D18, symBinAddr: 0x10000E2D0, symSize: 0x9C }
  - { offset: 0xCDAA, size: 0x8, addend: 0x0, symName: '__ZN86_$LT$std..panicking..panic_handler..StaticStrPayload$u20$as$u20$core..fmt..Display$GT$3fmt17he1332fafabac81a7E', symObjAddr: 0x49E20, symBinAddr: 0x100022434, symSize: 0x10 }
  - { offset: 0xCDCA, size: 0x8, addend: 0x0, symName: '__ZN89_$LT$std..panicking..panic_handler..FormatStringPayload$u20$as$u20$core..fmt..Display$GT$3fmt17h238e17cda5f171a0E', symObjAddr: 0x4A1BC, symBinAddr: 0x100022444, symSize: 0x34 }
  - { offset: 0xCEC4, size: 0x8, addend: 0x0, symName: '__ZN93_$LT$std..panicking..panic_handler..StaticStrPayload$u20$as$u20$core..panic..PanicPayload$GT$3get17hdd14423573586069E', symObjAddr: 0x4A80C, symBinAddr: 0x1000224E0, symSize: 0xC }
  - { offset: 0xCEDE, size: 0x8, addend: 0x0, symName: '__ZN93_$LT$std..panicking..panic_handler..StaticStrPayload$u20$as$u20$core..panic..PanicPayload$GT$6as_str17h95f0ff5da331c4b0E', symObjAddr: 0x4A818, symBinAddr: 0x1000224EC, symSize: 0xC }
  - { offset: 0xCEF8, size: 0x8, addend: 0x0, symName: '__ZN93_$LT$std..panicking..panic_handler..StaticStrPayload$u20$as$u20$core..panic..PanicPayload$GT$8take_box17h47921ac048705752E', symObjAddr: 0x4A824, symBinAddr: 0x1000224F8, symSize: 0x48 }
  - { offset: 0xCFA0, size: 0x8, addend: 0x0, symName: '__ZN96_$LT$std..panicking..panic_handler..FormatStringPayload$u20$as$u20$core..panic..PanicPayload$GT$3get17hb78add4c84867b32E', symObjAddr: 0x4AF48, symBinAddr: 0x10002295C, symSize: 0xA0 }
  - { offset: 0xD0D0, size: 0x8, addend: 0x0, symName: '__ZN96_$LT$std..panicking..panic_handler..FormatStringPayload$u20$as$u20$core..panic..PanicPayload$GT$8take_box17hc3a6df41a7d29947E', symObjAddr: 0x4AFE8, symBinAddr: 0x1000229FC, symSize: 0x108 }
  - { offset: 0xD34B, size: 0x8, addend: 0x0, symName: __ZN3std9panicking14payload_as_str17h1b931930ac25cd0dE, symObjAddr: 0x21E6C, symBinAddr: 0x10000E36C, symSize: 0xC8 }
  - { offset: 0xD48F, size: 0x8, addend: 0x0, symName: __ZN3std9panicking15panic_with_hook17hbf4b5b50eb72ae21E, symObjAddr: 0x21F34, symBinAddr: 0x10000E434, symSize: 0x388 }
  - { offset: 0xDCA3, size: 0x8, addend: 0x0, symName: '__ZN64_$LT$std..sys..stdio..unix..Stderr$u20$as$u20$std..io..Write$GT$14write_vectored17h355e3dd8523d0f99E', symObjAddr: 0x445D0, symBinAddr: 0x100020F24, symSize: 0x54 }
  - { offset: 0xDD78, size: 0x8, addend: 0x0, symName: '__ZN64_$LT$std..sys..stdio..unix..Stderr$u20$as$u20$std..io..Write$GT$17is_write_vectored17h4923529113eaf90bE', symObjAddr: 0x44624, symBinAddr: 0x100020F78, symSize: 0x8 }
  - { offset: 0xDD91, size: 0x8, addend: 0x0, symName: '__ZN64_$LT$std..sys..stdio..unix..Stderr$u20$as$u20$std..io..Write$GT$5flush17hc9aac70165715c2cE', symObjAddr: 0x4462C, symBinAddr: 0x100020F80, symSize: 0x8 }
  - { offset: 0xDDAA, size: 0x8, addend: 0x0, symName: '__ZN64_$LT$std..sys..stdio..unix..Stderr$u20$as$u20$std..io..Write$GT$5write17hef687bf526171f29E', symObjAddr: 0x44634, symBinAddr: 0x100020F88, symSize: 0x54 }
  - { offset: 0xDF28, size: 0x8, addend: 0x0, symName: __ZN3std3sys3pal4unix14stack_overflow11thread_info16set_current_info17h32da5dece0138868E, symObjAddr: 0x14918, symBinAddr: 0x10000AE80, symSize: 0xD04 }
  - { offset: 0xFE7C, size: 0x8, addend: 0x0, symName: __ZN3std3sys3pal4unix14stack_overflow3imp12drop_handler17h55cf30fd98f998a3E, symObjAddr: 0x1561C, symBinAddr: 0x10000BB84, symSize: 0x3A0 }
  - { offset: 0x10684, size: 0x8, addend: 0x0, symName: __ZN3std3sys3pal4unix14stack_overflow3imp12make_handler17hb2f1c9eb043981a1E, symObjAddr: 0x159BC, symBinAddr: 0x10000BF24, symSize: 0x194 }
  - { offset: 0x108D7, size: 0x8, addend: 0x0, symName: __ZN3std3sys3pal4unix14stack_overflow3imp14signal_handler17hbdb415d6eacab510E, symObjAddr: 0x15B50, symBinAddr: 0x10000C0B8, symSize: 0x2DC }
  - { offset: 0x10F5A, size: 0x8, addend: 0x0, symName: __ZN3std3sys3pal4unix4sync5mutex5Mutex4init17h0b384dce647cc8dbE, symObjAddr: 0x164A0, symBinAddr: 0x10000C4E4, symSize: 0x168 }
  - { offset: 0x11024, size: 0x8, addend: 0x0, symName: __ZN3std3sys3pal4unix4sync5mutex5Mutex4lock4fail17h4772a0c4b10c89f0E, symObjAddr: 0x16624, symBinAddr: 0x100032558, symSize: 0xD4 }
  - { offset: 0x112B4, size: 0x8, addend: 0x0, symName: __ZN3std3sys3pal4unix14abort_internal17h707d9553a3137251E, symObjAddr: 0x1490C, symBinAddr: 0x10003254C, symSize: 0xC }
  - { offset: 0x112CE, size: 0x8, addend: 0x0, symName: __ZN3std3sys3pal4unix17decode_error_kind17h305da3761b9c486aE, symObjAddr: 0x15E2C, symBinAddr: 0x10000C394, symSize: 0x150 }
  - { offset: 0x1136B, size: 0x8, addend: 0x0, symName: __ZN3std3sys3pal6common14small_c_string24run_with_cstr_allocating17h517d0df79bce7c82E, symObjAddr: 0x169C8, symBinAddr: 0x10003262C, symSize: 0xB4 }
  - { offset: 0x11533, size: 0x8, addend: 0x0, symName: __ZN3std3sys3pal6common14small_c_string24run_with_cstr_allocating17hc5aae680db08e17aE, symObjAddr: 0x16CC4, symBinAddr: 0x1000326E0, symSize: 0xA4 }
  - { offset: 0x11689, size: 0x8, addend: 0x0, symName: __ZN3std3sys3pal6common14small_c_string24run_with_cstr_allocating17hd14389ec86b7af9aE, symObjAddr: 0x16D68, symBinAddr: 0x100032784, symSize: 0xC0 }
  - { offset: 0x118A8, size: 0x8, addend: 0x0, symName: __ZN3std3sys12thread_local6native5eager7destroy17hf0b622ceec581984E, symObjAddr: 0xF180, symBinAddr: 0x10000A7D8, symSize: 0x2C }
  - { offset: 0x11A43, size: 0x8, addend: 0x0, symName: __ZN3std3sys12thread_local5guard5apple6enable9run_dtors17ha3d86244ee51b7a1E, symObjAddr: 0xF00C, symBinAddr: 0x10000A6E8, symSize: 0xF0 }
  - { offset: 0x11ED4, size: 0x8, addend: 0x0, symName: __ZN3std3sys12thread_local11destructors4list8register17ha8fd7daf7e0c62b0E, symObjAddr: 0xEF10, symBinAddr: 0x10000A5EC, symSize: 0xFC }
  - { offset: 0x121D2, size: 0x8, addend: 0x0, symName: __ZN3std3sys3env4unix13env_read_lock17h770211332f5c1f90E, symObjAddr: 0x1342C, symBinAddr: 0x10000AB20, symSize: 0x230 }
  - { offset: 0x1289B, size: 0x8, addend: 0x0, symName: '__ZN3std3sys3env4unix6getenv28_$u7b$$u7b$closure$u7d$$u7d$17h365d1156fb2dc6deE', symObjAddr: 0x1365C, symBinAddr: 0x10000AD50, symSize: 0x130 }
  - { offset: 0x12ACC, size: 0x8, addend: 0x0, symName: __ZN3std3sys2fs4unix4File6open_c17h5ff052daf914d327E, symObjAddr: 0x11CA0, symBinAddr: 0x10000A804, symSize: 0x1A0 }
  - { offset: 0x12C41, size: 0x8, addend: 0x0, symName: '__ZN65_$LT$std..sys..fs..unix..Dir$u20$as$u20$core..ops..drop..Drop$GT$4drop17h8572b46c72788d26E', symObjAddr: 0x44938, symBinAddr: 0x100020FDC, symSize: 0xB4 }
  - { offset: 0x12D08, size: 0x8, addend: 0x0, symName: __ZN3std3sys2fs8read_dir17h3de3d951fc53246fE, symObjAddr: 0x12CD0, symBinAddr: 0x10000A9A4, symSize: 0x17C }
  - { offset: 0x130A3, size: 0x8, addend: 0x0, symName: '__ZN3std3sys4sync8once_box16OnceBox$LT$T$GT$10initialize17h2d3ea3e1220dcd25E', symObjAddr: 0x17E78, symBinAddr: 0x100032AC4, symSize: 0xE4 }
  - { offset: 0x13321, size: 0x8, addend: 0x0, symName: __ZN3std3sys4sync4once5queue4Once4call17he10dbfaffbd7533fE, symObjAddr: 0x1728C, symBinAddr: 0x100032844, symSize: 0x200 }
  - { offset: 0x135E3, size: 0x8, addend: 0x0, symName: '__ZN82_$LT$std..sys..sync..once..queue..WaiterQueue$u20$as$u20$core..ops..drop..Drop$GT$4drop17h51c752d78792aec3E', symObjAddr: 0x49778, symBinAddr: 0x100022184, symSize: 0xDC }
  - { offset: 0x137D2, size: 0x8, addend: 0x0, symName: __ZN3std3sys4sync4once5queue4wait17hfafedca398bbd05dE, symObjAddr: 0x17658, symBinAddr: 0x10000C64C, symSize: 0x184 }
  - { offset: 0x13D45, size: 0x8, addend: 0x0, symName: __ZN3std3sys4sync6rwlock5queue6RwLock12unlock_queue17h522a295efac16365E, symObjAddr: 0x177F0, symBinAddr: 0x10000C7D0, symSize: 0x1BC }
  - { offset: 0x1439F, size: 0x8, addend: 0x0, symName: __ZN3std3sys4sync6rwlock5queue6RwLock16unlock_contended17h117fcd6c712bcaf8E, symObjAddr: 0x17CA8, symBinAddr: 0x100032A44, symSize: 0x40 }
  - { offset: 0x14465, size: 0x8, addend: 0x0, symName: __ZN3std3sys4sync6rwlock5queue6RwLock21read_unlock_contended17hc3e48bc1f626a445E, symObjAddr: 0x17CE8, symBinAddr: 0x100032A84, symSize: 0x40 }
  - { offset: 0x14483, size: 0x8, addend: 0x0, symName: __ZN3std3sys4sync6rwlock5queue6RwLock21read_unlock_contended17hc3e48bc1f626a445E, symObjAddr: 0x17CE8, symBinAddr: 0x100032A84, symSize: 0x40 }
  - { offset: 0x14498, size: 0x8, addend: 0x0, symName: __ZN3std3sys4sync6rwlock5queue6RwLock21read_unlock_contended17hc3e48bc1f626a445E, symObjAddr: 0x17CE8, symBinAddr: 0x100032A84, symSize: 0x40 }
  - { offset: 0x146B2, size: 0x8, addend: 0x0, symName: '__ZN83_$LT$std..sys..sync..rwlock..queue..PanicGuard$u20$as$u20$core..ops..drop..Drop$GT$4drop17h131cbf3bf14a35b6E', symObjAddr: 0x499F4, symBinAddr: 0x100036144, symSize: 0x30 }
  - { offset: 0x1475B, size: 0x8, addend: 0x0, symName: '__ZN3std3sys11personality3gcc14find_eh_action28_$u7b$$u7b$closure$u7d$$u7d$17h15e9bfdfb8d32c4cE', symObjAddr: 0xEDB0, symBinAddr: 0x10000A48C, symSize: 0xC }
  - { offset: 0x1476F, size: 0x8, addend: 0x0, symName: '__ZN3std3sys11personality3gcc14find_eh_action28_$u7b$$u7b$closure$u7d$$u7d$17h6de2dcea55f7170aE', symObjAddr: 0xEDBC, symBinAddr: 0x10000A498, symSize: 0xC }
  - { offset: 0x147B7, size: 0x8, addend: 0x0, symName: _rust_eh_personality, symObjAddr: 0x4DC6C, symBinAddr: 0x1000253A8, symSize: 0x378 }
  - { offset: 0x14AE4, size: 0x8, addend: 0x0, symName: __ZN3std3sys11personality5dwarf2eh19read_encoded_offset17h553e09e5c9283001E, symObjAddr: 0xEDC8, symBinAddr: 0x10000A4A4, symSize: 0x148 }
  - { offset: 0x14C39, size: 0x8, addend: 0x0, symName: '__ZN3std3sys9backtrace10_print_fmt28_$u7b$$u7b$closure$u7d$$u7d$17h1229ac298eac8201E', symObjAddr: 0x1AF10, symBinAddr: 0x10000C98C, symSize: 0x134 }
  - { offset: 0x14D35, size: 0x8, addend: 0x0, symName: '__ZN3std3sys9backtrace10_print_fmt28_$u7b$$u7b$closure$u7d$$u7d$17h41cce550886d7ff2E', symObjAddr: 0x1B044, symBinAddr: 0x10000CAC0, symSize: 0x24 }
  - { offset: 0x14D74, size: 0x8, addend: 0x0, symName: '__ZN3std3sys9backtrace10_print_fmt28_$u7b$$u7b$closure$u7d$$u7d$28_$u7b$$u7b$closure$u7d$$u7d$17hfd76f87ab96b5b3cE', symObjAddr: 0x1B068, symBinAddr: 0x10000CAE4, symSize: 0x244 }
  - { offset: 0x14F98, size: 0x8, addend: 0x0, symName: __ZN3std3sys9backtrace15output_filename17hd59cc3354dbf6ec1E, symObjAddr: 0x1B2AC, symBinAddr: 0x10000CD28, symSize: 0xE0 }
  - { offset: 0x150D9, size: 0x8, addend: 0x0, symName: __ZN3std3sys9backtrace26__rust_end_short_backtrace17h5d9167d60b96dcbaE, symObjAddr: 0x1B38C, symBinAddr: 0x100032BA8, symSize: 0xC }
  - { offset: 0x150F3, size: 0x8, addend: 0x0, symName: __ZN3std3sys9backtrace26__rust_end_short_backtrace17hf48afbd2b4eb8a2dE, symObjAddr: 0x1B398, symBinAddr: 0x10000CE08, symSize: 0xC }
  - { offset: 0x1510C, size: 0x8, addend: 0x0, symName: __ZN3std3sys9backtrace4lock17hdc95d3964857931eE, symObjAddr: 0x1B3B0, symBinAddr: 0x10000CE14, symSize: 0x70 }
  - { offset: 0x15286, size: 0x8, addend: 0x0, symName: '__ZN98_$LT$std..sys..backtrace..BacktraceLock..print..DisplayBacktrace$u20$as$u20$core..fmt..Display$GT$3fmt17h10dcb5e2ebe8f0acE', symObjAddr: 0x4B2BC, symBinAddr: 0x100022B04, symSize: 0x210 }
  - { offset: 0x1577B, size: 0x8, addend: 0x0, symName: __RNvCsdBezzDwma51_7___rustc11___rdl_alloc, symObjAddr: 0x48, symBinAddr: 0x1000027E8, symSize: 0x6C }
  - { offset: 0x157F8, size: 0x8, addend: 0x0, symName: __RNvCsdBezzDwma51_7___rustc13___rdl_dealloc, symObjAddr: 0xC0, symBinAddr: 0x100002854, symSize: 0x4 }
  - { offset: 0x15816, size: 0x8, addend: 0x0, symName: __RNvCsdBezzDwma51_7___rustc13___rdl_dealloc, symObjAddr: 0xC0, symBinAddr: 0x100002854, symSize: 0x4 }
  - { offset: 0x15828, size: 0x8, addend: 0x0, symName: __RNvCsdBezzDwma51_7___rustc13___rdl_realloc, symObjAddr: 0xC4, symBinAddr: 0x100002858, symSize: 0xB0 }
  - { offset: 0x158FB, size: 0x8, addend: 0x0, symName: __RNvCsdBezzDwma51_7___rustc18___rdl_alloc_zeroed, symObjAddr: 0x2AC, symBinAddr: 0x100002A40, symSize: 0x90 }
  - { offset: 0x1599F, size: 0x8, addend: 0x0, symName: __RNvCsdBezzDwma51_7___rustc26___rust_alloc_error_handler, symObjAddr: 0x454, symBinAddr: 0x1000324D4, symSize: 0x18 }
  - { offset: 0x159E4, size: 0x8, addend: 0x0, symName: __ZN3std5alloc24default_alloc_error_hook17hb8dcfa6a978f0c65E, symObjAddr: 0x1F008, symBinAddr: 0x10000D8B8, symSize: 0x134 }
  - { offset: 0x15A54, size: 0x8, addend: 0x0, symName: __ZN3std5alloc8rust_oom17h7cbaa14c87bcea7dE, symObjAddr: 0x1F13C, symBinAddr: 0x100032C18, symSize: 0x18 }
  - { offset: 0x15A73, size: 0x8, addend: 0x0, symName: '__ZN3std5alloc8rust_oom28_$u7b$$u7b$closure$u7d$$u7d$17h09636b79a495f04bE', symObjAddr: 0x1F154, symBinAddr: 0x100032C30, symSize: 0x34 }
  - { offset: 0x15ADF, size: 0x8, addend: 0x0, symName: __ZN3std2rt15handle_rt_panic17ha107906262e8093dE, symObjAddr: 0xBF94, symBinAddr: 0x1000324EC, symSize: 0x30 }
  - { offset: 0x15B2D, size: 0x8, addend: 0x0, symName: '__ZN3std2rt19lang_start_internal28_$u7b$$u7b$closure$u7d$$u7d$28_$u7b$$u7b$closure$u7d$$u7d$28_$u7b$$u7b$closure$u7d$$u7d$17h1ddb15f066f626b6E', symObjAddr: 0xC5DC, symBinAddr: 0x10003251C, symSize: 0x30 }
  - { offset: 0x15B61, size: 0x8, addend: 0x0, symName: __ZN3std2rt19lang_start_internal17h48672da3ca81ba76E, symObjAddr: 0xBFC4, symBinAddr: 0x100009B7C, symSize: 0x618 }
  - { offset: 0x165FA, size: 0x8, addend: 0x0, symName: __ZN3std2io5Write18write_all_vectored17h489d2ea4db2a469eE, symObjAddr: 0x9118, symBinAddr: 0x100008B9C, symSize: 0x184 }
  - { offset: 0x167FD, size: 0x8, addend: 0x0, symName: __ZN3std2io5Write9write_all17h0678c082825d8dbbE, symObjAddr: 0x929C, symBinAddr: 0x100008D20, symSize: 0xAC }
  - { offset: 0x168C0, size: 0x8, addend: 0x0, symName: __ZN3std2io5Write9write_fmt17h7c97e47276bac25eE, symObjAddr: 0x9348, symBinAddr: 0x100008DCC, symSize: 0x118 }
  - { offset: 0x16AEC, size: 0x8, addend: 0x0, symName: __ZN3std2io5Write9write_fmt17had1ef9c8d87ad3dfE, symObjAddr: 0x9460, symBinAddr: 0x100008EE4, symSize: 0x118 }
  - { offset: 0x16D1F, size: 0x8, addend: 0x0, symName: __ZN3std2io5Write9write_fmt17hcbf4af37746a8c5cE, symObjAddr: 0x9578, symBinAddr: 0x100008FFC, symSize: 0x118 }
  - { offset: 0x16F84, size: 0x8, addend: 0x0, symName: __ZN3std2io5error5Error3new17he891c9ab93678831E, symObjAddr: 0x9768, symBinAddr: 0x100009114, symSize: 0x110 }
  - { offset: 0x173BD, size: 0x8, addend: 0x0, symName: '__ZN3std2io5error83_$LT$impl$u20$core..fmt..Debug$u20$for$u20$std..io..error..repr_bitpacked..Repr$GT$3fmt17h35e80d9003397ce2E', symObjAddr: 0x98F4, symBinAddr: 0x100009224, symSize: 0x280 }
  - { offset: 0x17600, size: 0x8, addend: 0x0, symName: '__ZN58_$LT$std..io..error..Error$u20$as$u20$core..fmt..Debug$GT$3fmt17haaca707828e07d35E', symObjAddr: 0x33508, symBinAddr: 0x100018900, symSize: 0x4 }
  - { offset: 0x17619, size: 0x8, addend: 0x0, symName: '__ZN60_$LT$std..io..error..Error$u20$as$u20$core..fmt..Display$GT$3fmt17h4de023fd3e8f99d7E', symObjAddr: 0x40728, symBinAddr: 0x100020B28, symSize: 0x1A8 }
  - { offset: 0x17839, size: 0x8, addend: 0x0, symName: '__ZN62_$LT$std..io..error..ErrorKind$u20$as$u20$core..fmt..Debug$GT$3fmt17h8590ad9eb6fd0099E', symObjAddr: 0x43378, symBinAddr: 0x100020E04, symSize: 0x28 }
  - { offset: 0x1789F, size: 0x8, addend: 0x0, symName: '__ZN3std2io8buffered9bufwriter18BufWriter$LT$W$GT$9flush_buf17h177cea64625b1a3eE', symObjAddr: 0xABF4, symBinAddr: 0x10000999C, symSize: 0x1E0 }
  - { offset: 0x17D47, size: 0x8, addend: 0x0, symName: __ZN3std2io5stdio22try_set_output_capture17h772b2b40ffe2512dE, symObjAddr: 0xA084, symBinAddr: 0x1000098B0, symSize: 0xEC }
  - { offset: 0x18008, size: 0x8, addend: 0x0, symName: '__ZN3std2io5impls74_$LT$impl$u20$std..io..Write$u20$for$u20$alloc..vec..Vec$LT$u8$C$A$GT$$GT$14write_vectored17h64026a8ebfb22455E', symObjAddr: 0x9B74, symBinAddr: 0x1000094A4, symSize: 0x184 }
  - { offset: 0x18255, size: 0x8, addend: 0x0, symName: '__ZN3std2io5impls74_$LT$impl$u20$std..io..Write$u20$for$u20$alloc..vec..Vec$LT$u8$C$A$GT$$GT$17is_write_vectored17h613ad89fd2cd9d26E', symObjAddr: 0x9CF8, symBinAddr: 0x100009628, symSize: 0x8 }
  - { offset: 0x1827C, size: 0x8, addend: 0x0, symName: '__ZN3std2io5impls74_$LT$impl$u20$std..io..Write$u20$for$u20$alloc..vec..Vec$LT$u8$C$A$GT$$GT$18write_all_vectored17h3cd287fc89525367E', symObjAddr: 0x9D00, symBinAddr: 0x100009630, symSize: 0x174 }
  - { offset: 0x1829A, size: 0x8, addend: 0x0, symName: '__ZN3std2io5impls74_$LT$impl$u20$std..io..Write$u20$for$u20$alloc..vec..Vec$LT$u8$C$A$GT$$GT$18write_all_vectored17h3cd287fc89525367E', symObjAddr: 0x9D00, symBinAddr: 0x100009630, symSize: 0x174 }
  - { offset: 0x182AF, size: 0x8, addend: 0x0, symName: '__ZN3std2io5impls74_$LT$impl$u20$std..io..Write$u20$for$u20$alloc..vec..Vec$LT$u8$C$A$GT$$GT$18write_all_vectored17h3cd287fc89525367E', symObjAddr: 0x9D00, symBinAddr: 0x100009630, symSize: 0x174 }
  - { offset: 0x182C4, size: 0x8, addend: 0x0, symName: '__ZN3std2io5impls74_$LT$impl$u20$std..io..Write$u20$for$u20$alloc..vec..Vec$LT$u8$C$A$GT$$GT$18write_all_vectored17h3cd287fc89525367E', symObjAddr: 0x9D00, symBinAddr: 0x100009630, symSize: 0x174 }
  - { offset: 0x182D9, size: 0x8, addend: 0x0, symName: '__ZN3std2io5impls74_$LT$impl$u20$std..io..Write$u20$for$u20$alloc..vec..Vec$LT$u8$C$A$GT$$GT$18write_all_vectored17h3cd287fc89525367E', symObjAddr: 0x9D00, symBinAddr: 0x100009630, symSize: 0x174 }
  - { offset: 0x182ED, size: 0x8, addend: 0x0, symName: '__ZN3std2io5impls74_$LT$impl$u20$std..io..Write$u20$for$u20$alloc..vec..Vec$LT$u8$C$A$GT$$GT$18write_all_vectored17h3cd287fc89525367E', symObjAddr: 0x9D00, symBinAddr: 0x100009630, symSize: 0x174 }
  - { offset: 0x1851E, size: 0x8, addend: 0x0, symName: '__ZN3std2io5impls74_$LT$impl$u20$std..io..Write$u20$for$u20$alloc..vec..Vec$LT$u8$C$A$GT$$GT$5flush17h77b3b5d4a4c0d3f9E', symObjAddr: 0x9E74, symBinAddr: 0x1000097A4, symSize: 0x8 }
  - { offset: 0x18538, size: 0x8, addend: 0x0, symName: '__ZN3std2io5impls74_$LT$impl$u20$std..io..Write$u20$for$u20$alloc..vec..Vec$LT$u8$C$A$GT$$GT$5write17h2a42bcad807468a7E', symObjAddr: 0x9E7C, symBinAddr: 0x1000097AC, symSize: 0x84 }
  - { offset: 0x1867C, size: 0x8, addend: 0x0, symName: '__ZN3std2io5impls74_$LT$impl$u20$std..io..Write$u20$for$u20$alloc..vec..Vec$LT$u8$C$A$GT$$GT$9write_all17h38875b01f6132df7E', symObjAddr: 0x9F00, symBinAddr: 0x100009830, symSize: 0x80 }
  - { offset: 0x188C4, size: 0x8, addend: 0x0, symName: '__ZN81_$LT$std..io..default_write_fmt..Adapter$LT$T$GT$$u20$as$u20$core..fmt..Write$GT$9write_str17h0fdfa89fa6b96769E', symObjAddr: 0x48C90, symBinAddr: 0x100021F8C, symSize: 0xA0 }
  - { offset: 0x189E4, size: 0x8, addend: 0x0, symName: '__ZN81_$LT$std..io..default_write_fmt..Adapter$LT$T$GT$$u20$as$u20$core..fmt..Write$GT$9write_str17h5a57ca2e2bda2957E', symObjAddr: 0x48D30, symBinAddr: 0x10002202C, symSize: 0xD8 }
  - { offset: 0x18ACA, size: 0x8, addend: 0x0, symName: '__ZN81_$LT$std..io..default_write_fmt..Adapter$LT$T$GT$$u20$as$u20$core..fmt..Write$GT$9write_str17h7d3bb3b8b22db187E', symObjAddr: 0x48E08, symBinAddr: 0x100022104, symSize: 0x80 }
  - { offset: 0x18CF2, size: 0x8, addend: 0x0, symName: __ZN3std4path4Path13_strip_prefix17h04550551e63b8316E, symObjAddr: 0x1C220, symBinAddr: 0x10000D220, symSize: 0x21C }
  - { offset: 0x18E00, size: 0x8, addend: 0x0, symName: __ZN3std4path4Path5_join17h44fb22321377b570E, symObjAddr: 0x1CAF0, symBinAddr: 0x10000D43C, symSize: 0x184 }
  - { offset: 0x19395, size: 0x8, addend: 0x0, symName: __ZN3std4path10Components25parse_next_component_back17hb17688d6680321abE, symObjAddr: 0x1B420, symBinAddr: 0x10000CE84, symSize: 0x164 }
  - { offset: 0x194DD, size: 0x8, addend: 0x0, symName: __ZN3std4path10Components7as_path17h3e350950a52c1903E, symObjAddr: 0x1B584, symBinAddr: 0x10000CFE8, symSize: 0x238 }
  - { offset: 0x196E7, size: 0x8, addend: 0x0, symName: '__ZN61_$LT$std..path..Component$u20$as$u20$core..cmp..PartialEq$GT$2eq17h8ba3651115d2bdf8E', symObjAddr: 0x429C0, symBinAddr: 0x100020CD0, symSize: 0x134 }
  - { offset: 0x1983D, size: 0x8, addend: 0x0, symName: '__ZN80_$LT$std..path..Components$u20$as$u20$core..iter..traits..iterator..Iterator$GT$4next17h8790bf342c5f8d2eE', symObjAddr: 0x48734, symBinAddr: 0x100021C8C, symSize: 0x300 }
  - { offset: 0x19947, size: 0x8, addend: 0x0, symName: '__ZN95_$LT$std..path..Components$u20$as$u20$core..iter..traits..double_ended..DoubleEndedIterator$GT$9next_back17h6ff29d18b7e4e6bcE', symObjAddr: 0x4AAF0, symBinAddr: 0x100022540, symSize: 0x41C }
  - { offset: 0x19ACC, size: 0x8, addend: 0x0, symName: __ZN3std7process5abort17h930ef94b52b61edbE, symObjAddr: 0x20BA4, symBinAddr: 0x100032DC0, symSize: 0xC }
  - { offset: 0x19AFB, size: 0x8, addend: 0x0, symName: '__ZN126_$LT$std..thread..thread..thread_name_string..ThreadNameString$u20$as$u20$core..convert..From$LT$alloc..string..String$GT$$GT$4from17hb8c85e6773372204E', symObjAddr: 0xB2C, symBinAddr: 0x100002BE8, symSize: 0x128 }
  - { offset: 0x19D0E, size: 0x8, addend: 0x0, symName: __ZN3std6thread6thread6Thread3new17h7b25d1ddb970d059E, symObjAddr: 0x1F470, symBinAddr: 0x10000DB08, symSize: 0x18C }
  - { offset: 0x1A215, size: 0x8, addend: 0x0, symName: '__ZN3std6thread7current17with_current_name28_$u7b$$u7b$closure$u7d$$u7d$17h837370ffba488ff1E', symObjAddr: 0x1F84C, symBinAddr: 0x10000DC94, symSize: 0x368 }
  - { offset: 0x1A9BB, size: 0x8, addend: 0x0, symName: __ZN3std6thread7current12init_current17h819d8bebffd78f67E, symObjAddr: 0x1F710, symBinAddr: 0x100032C84, symSize: 0x13C }
  - { offset: 0x1ACC7, size: 0x8, addend: 0x0, symName: __ZN3std6thread2id8ThreadId3new9exhausted17h932119ca76059478E, symObjAddr: 0x1F304, symBinAddr: 0x100032C64, symSize: 0x20 }
  - { offset: 0x1AD2A, size: 0x8, addend: 0x0, symName: __ZN3std12backtrace_rs5print17BacktraceFrameFmt21print_raw_with_column17h62526ec87c27043bE, symObjAddr: 0xCD4, symBinAddr: 0x100002D38, symSize: 0x378 }
  - { offset: 0x1AF47, size: 0x8, addend: 0x0, symName: __ZN3std12backtrace_rs9backtrace9libunwind5trace8trace_fn17he251f898cb32f58eE, symObjAddr: 0x104C, symBinAddr: 0x1000030B0, symSize: 0x48 }
  - { offset: 0x1AFFA, size: 0x8, addend: 0x0, symName: __ZN3std12backtrace_rs9symbolize5gimli4mmap17hbb66f8d2ae0cb51fE, symObjAddr: 0x1094, symBinAddr: 0x1000030F8, symSize: 0x1EC }
  - { offset: 0x1B506, size: 0x8, addend: 0x0, symName: __ZN3std12backtrace_rs9symbolize5gimli5macho11find_header17h3d43391121c17b32E, symObjAddr: 0x1280, symBinAddr: 0x1000032E4, symSize: 0x1D4 }
  - { offset: 0x1B523, size: 0x8, addend: 0x0, symName: __ZN3std12backtrace_rs9symbolize5gimli5macho11find_header17h3d43391121c17b32E, symObjAddr: 0x1280, symBinAddr: 0x1000032E4, symSize: 0x1D4 }
  - { offset: 0x1B537, size: 0x8, addend: 0x0, symName: __ZN3std12backtrace_rs9symbolize5gimli5macho11find_header17h3d43391121c17b32E, symObjAddr: 0x1280, symBinAddr: 0x1000032E4, symSize: 0x1D4 }
  - { offset: 0x1B54B, size: 0x8, addend: 0x0, symName: __ZN3std12backtrace_rs9symbolize5gimli5macho11find_header17h3d43391121c17b32E, symObjAddr: 0x1280, symBinAddr: 0x1000032E4, symSize: 0x1D4 }
  - { offset: 0x1B55F, size: 0x8, addend: 0x0, symName: __ZN3std12backtrace_rs9symbolize5gimli5macho11find_header17h3d43391121c17b32E, symObjAddr: 0x1280, symBinAddr: 0x1000032E4, symSize: 0x1D4 }
  - { offset: 0x1B574, size: 0x8, addend: 0x0, symName: __ZN3std12backtrace_rs9symbolize5gimli5macho11find_header17h3d43391121c17b32E, symObjAddr: 0x1280, symBinAddr: 0x1000032E4, symSize: 0x1D4 }
  - { offset: 0x1B589, size: 0x8, addend: 0x0, symName: __ZN3std12backtrace_rs9symbolize5gimli5macho11find_header17h3d43391121c17b32E, symObjAddr: 0x1280, symBinAddr: 0x1000032E4, symSize: 0x1D4 }
  - { offset: 0x1BC70, size: 0x8, addend: 0x0, symName: __ZN3std12backtrace_rs9symbolize5gimli5macho6Object5parse17hac0b2e4cb8c0dcfeE, symObjAddr: 0x1454, symBinAddr: 0x1000034B8, symSize: 0xC9C }
  - { offset: 0x1D915, size: 0x8, addend: 0x0, symName: __ZN3std12backtrace_rs9symbolize5gimli5macho6Object7section17h7974e662f4f835dbE, symObjAddr: 0x20F0, symBinAddr: 0x100004154, symSize: 0x154 }
  - { offset: 0x1DCF8, size: 0x8, addend: 0x0, symName: __ZN3std12backtrace_rs9symbolize5gimli7Context11find_frames17h1c52b97b2ce18abdE, symObjAddr: 0x2244, symBinAddr: 0x1000042A8, symSize: 0x394 }
  - { offset: 0x1E128, size: 0x8, addend: 0x0, symName: __ZN3std12backtrace_rs9symbolize5gimli7Context3new17hbedbc783f9e8e071E, symObjAddr: 0x25D8, symBinAddr: 0x10000463C, symSize: 0x1F0C }
  - { offset: 0x22343, size: 0x8, addend: 0x0, symName: __ZN3std12backtrace_rs9symbolize5gimli7resolve17h321e38bc8c935241E, symObjAddr: 0x44E4, symBinAddr: 0x100006548, symSize: 0x2580 }
  - { offset: 0x278CA, size: 0x8, addend: 0x0, symName: __ZN3std12backtrace_rs9symbolize6Symbol4name17h82e55e552f960b26E, symObjAddr: 0x6A9C, symBinAddr: 0x100008AC8, symSize: 0xD4 }
  - { offset: 0x27A31, size: 0x8, addend: 0x0, symName: '__ZN79_$LT$std..backtrace_rs..symbolize..SymbolName$u20$as$u20$core..fmt..Display$GT$3fmt17hf127978ebd842dafE', symObjAddr: 0x47F2C, symBinAddr: 0x100021B88, symSize: 0x104 }
  - { offset: 0x27B70, size: 0x8, addend: 0x0, symName: '__ZN75_$LT$std..fs..ReadDir$u20$as$u20$core..iter..traits..iterator..Iterator$GT$4next17h8142713fd293396eE', symObjAddr: 0x46918, symBinAddr: 0x1000219FC, symSize: 0x18C }
  - { offset: 0x27F9E, size: 0x8, addend: 0x0, symName: '__ZN64_$LT$std..ffi..os_str..Display$u20$as$u20$core..fmt..Display$GT$3fmt17h1b043e796b8fb58fE', symObjAddr: 0x442B8, symBinAddr: 0x100020E78, symSize: 0xAC }
  - { offset: 0x28020, size: 0x8, addend: 0x0, symName: '__ZN3std4sync6poison5mutex14Mutex$LT$T$GT$4lock17h74113ff14063048fE', symObjAddr: 0x1E5B8, symBinAddr: 0x10000D840, symSize: 0x78 }
  - { offset: 0x28287, size: 0x8, addend: 0x0, symName: '__ZN3std4sync4once4Once15call_once_force28_$u7b$$u7b$closure$u7d$$u7d$17h8d477eed7ba12ddeE', symObjAddr: 0x1E188, symBinAddr: 0x10000D5C0, symSize: 0x60 }
  - { offset: 0x2834E, size: 0x8, addend: 0x0, symName: '__ZN3std4sync4once4Once9call_once28_$u7b$$u7b$closure$u7d$$u7d$17ha4b487854285c8e3E', symObjAddr: 0x1E398, symBinAddr: 0x10000D620, symSize: 0x220 }
  - { offset: 0x28A8E, size: 0x8, addend: 0x0, symName: '__ZN3std4sync9once_lock17OnceLock$LT$T$GT$10initialize17hd68efc03c9fc52d0E', symObjAddr: 0x1EC94, symBinAddr: 0x100032BB4, symSize: 0x64 }
  - { offset: 0x28AB9, size: 0x8, addend: 0x0, symName: '__ZN3std4sync9once_lock17OnceLock$LT$T$GT$10initialize17hd68efc03c9fc52d0E', symObjAddr: 0x1EC94, symBinAddr: 0x100032BB4, symSize: 0x64 }
  - { offset: 0x28ACD, size: 0x8, addend: 0x0, symName: '__ZN3std4sync9once_lock17OnceLock$LT$T$GT$10initialize17hd68efc03c9fc52d0E', symObjAddr: 0x1EC94, symBinAddr: 0x100032BB4, symSize: 0x64 }
  - { offset: 0x28AE1, size: 0x8, addend: 0x0, symName: '__ZN3std4sync9once_lock17OnceLock$LT$T$GT$10initialize17hd68efc03c9fc52d0E', symObjAddr: 0x1EC94, symBinAddr: 0x100032BB4, symSize: 0x64 }
  - { offset: 0x28BFF, size: 0x8, addend: 0x0, symName: __ZN3std5panic19get_backtrace_style17hdc9455832ca078bdE, symObjAddr: 0x1F194, symBinAddr: 0x10000D9EC, symSize: 0x11C }
  - { offset: 0x28C1D, size: 0x8, addend: 0x0, symName: __ZN3std5panic19get_backtrace_style17hdc9455832ca078bdE, symObjAddr: 0x1F194, symBinAddr: 0x10000D9EC, symSize: 0x11C }
  - { offset: 0x28C32, size: 0x8, addend: 0x0, symName: __ZN3std5panic19get_backtrace_style17hdc9455832ca078bdE, symObjAddr: 0x1F194, symBinAddr: 0x10000D9EC, symSize: 0x11C }
  - { offset: 0x29094, size: 0x8, addend: 0x0, symName: __ZN3std3env11current_dir17h6a7d2dfefdf11cfeE, symObjAddr: 0xC66C, symBinAddr: 0x10000A194, symSize: 0x18C }
  - { offset: 0x29442, size: 0x8, addend: 0x0, symName: __ZN3std3env7_var_os17h289066a7989eb522E, symObjAddr: 0xC964, symBinAddr: 0x10000A320, symSize: 0x16C }
  - { offset: 0x2B48C, size: 0x8, addend: 0x0, symName: '__ZN4core3ptr107drop_in_place$LT$core..pin..Pin$LT$alloc..boxed..Box$LT$std..sys..pal..unix..sync..mutex..Mutex$GT$$GT$$GT$17h2f5afaa5e9845c35E', symObjAddr: 0x241D8, symBinAddr: 0x10000EE68, symSize: 0x2C }
  - { offset: 0x2B523, size: 0x8, addend: 0x0, symName: '__ZN4core3ptr109drop_in_place$LT$alloc..sync..Arc$LT$std..sync..poison..mutex..Mutex$LT$alloc..vec..Vec$LT$u8$GT$$GT$$GT$$GT$17h1c3c9467849755daE', symObjAddr: 0x24204, symBinAddr: 0x10000EE94, symSize: 0x20 }
  - { offset: 0x2B53A, size: 0x8, addend: 0x0, symName: '__ZN4core3ptr109drop_in_place$LT$alloc..sync..Arc$LT$std..sync..poison..mutex..Mutex$LT$alloc..vec..Vec$LT$u8$GT$$GT$$GT$$GT$17h1c3c9467849755daE', symObjAddr: 0x24204, symBinAddr: 0x10000EE94, symSize: 0x20 }
  - { offset: 0x2B54F, size: 0x8, addend: 0x0, symName: '__ZN4core3ptr109drop_in_place$LT$alloc..sync..Arc$LT$std..sync..poison..mutex..Mutex$LT$alloc..vec..Vec$LT$u8$GT$$GT$$GT$$GT$17h1c3c9467849755daE', symObjAddr: 0x24204, symBinAddr: 0x10000EE94, symSize: 0x20 }
  - { offset: 0x2B564, size: 0x8, addend: 0x0, symName: '__ZN4core3ptr109drop_in_place$LT$alloc..sync..Arc$LT$std..sync..poison..mutex..Mutex$LT$alloc..vec..Vec$LT$u8$GT$$GT$$GT$$GT$17h1c3c9467849755daE', symObjAddr: 0x24204, symBinAddr: 0x10000EE94, symSize: 0x20 }
  - { offset: 0x2B5B8, size: 0x8, addend: 0x0, symName: '__ZN4core3ptr119drop_in_place$LT$std..io..default_write_fmt..Adapter$LT$std..io..cursor..Cursor$LT$$RF$mut$u20$$u5b$u8$u5d$$GT$$GT$$GT$17h89bce27df340f2f6E', symObjAddr: 0x242A0, symBinAddr: 0x10000EEB4, symSize: 0x10 }
  - { offset: 0x2B5CF, size: 0x8, addend: 0x0, symName: '__ZN4core3ptr119drop_in_place$LT$std..io..default_write_fmt..Adapter$LT$std..io..cursor..Cursor$LT$$RF$mut$u20$$u5b$u8$u5d$$GT$$GT$$GT$17h89bce27df340f2f6E', symObjAddr: 0x242A0, symBinAddr: 0x10000EEB4, symSize: 0x10 }
  - { offset: 0x2B5E1, size: 0x8, addend: 0x0, symName: '__ZN4core3ptr123drop_in_place$LT$addr2line..Context$LT$gimli..read..endian_slice..EndianSlice$LT$gimli..endianity..LittleEndian$GT$$GT$$GT$17h8f29a400601e6fa4E', symObjAddr: 0x242B0, symBinAddr: 0x10000EEC4, symSize: 0x70 }
  - { offset: 0x2B6E6, size: 0x8, addend: 0x0, symName: '__ZN4core3ptr129drop_in_place$LT$addr2line..unit..ResUnit$LT$gimli..read..endian_slice..EndianSlice$LT$gimli..endianity..LittleEndian$GT$$GT$$GT$17h512730105869f309E', symObjAddr: 0x24468, symBinAddr: 0x10000EF34, symSize: 0xE4 }
  - { offset: 0x2B903, size: 0x8, addend: 0x0, symName: '__ZN4core3ptr129drop_in_place$LT$addr2line..unit..SupUnit$LT$gimli..read..endian_slice..EndianSlice$LT$gimli..endianity..LittleEndian$GT$$GT$$GT$17h23fcacb95a14e432E', symObjAddr: 0x2454C, symBinAddr: 0x10000F018, symSize: 0x54 }
  - { offset: 0x2B9C0, size: 0x8, addend: 0x0, symName: '__ZN4core3ptr130drop_in_place$LT$addr2line..unit..ResUnits$LT$gimli..read..endian_slice..EndianSlice$LT$gimli..endianity..LittleEndian$GT$$GT$$GT$17h9d6f80f697460c5aE', symObjAddr: 0x245A0, symBinAddr: 0x10000F06C, symSize: 0xD0 }
  - { offset: 0x2BB64, size: 0x8, addend: 0x0, symName: '__ZN4core3ptr130drop_in_place$LT$addr2line..unit..SupUnits$LT$gimli..read..endian_slice..EndianSlice$LT$gimli..endianity..LittleEndian$GT$$GT$$GT$17h1a20f63d9db84b4cE', symObjAddr: 0x24670, symBinAddr: 0x10000F13C, symSize: 0xE4 }
  - { offset: 0x2BD13, size: 0x8, addend: 0x0, symName: '__ZN4core3ptr130drop_in_place$LT$gimli..read..dwarf..Dwarf$LT$gimli..read..endian_slice..EndianSlice$LT$gimli..endianity..LittleEndian$GT$$GT$$GT$17hc21e1a97bb85e40eE', symObjAddr: 0x24754, symBinAddr: 0x10000F220, symSize: 0x58 }
  - { offset: 0x2BDA8, size: 0x8, addend: 0x0, symName: '__ZN4core3ptr131drop_in_place$LT$$u5b$core..option..Option$LT$core..option..Option$LT$std..backtrace_rs..symbolize..gimli..Mapping$GT$$GT$$u5d$$GT$17he24071490e143274E', symObjAddr: 0x247AC, symBinAddr: 0x10000F278, symSize: 0xCC }
  - { offset: 0x2BE51, size: 0x8, addend: 0x0, symName: '__ZN4core3ptr137drop_in_place$LT$gimli..read..dwarf..Unit$LT$gimli..read..endian_slice..EndianSlice$LT$gimli..endianity..LittleEndian$GT$$C$usize$GT$$GT$17h0692f5e4434f8236E', symObjAddr: 0x24878, symBinAddr: 0x10000F344, symSize: 0x54 }
  - { offset: 0x2BF46, size: 0x8, addend: 0x0, symName: '__ZN4core3ptr138drop_in_place$LT$addr2line..function..LazyFunction$LT$gimli..read..endian_slice..EndianSlice$LT$gimli..endianity..LittleEndian$GT$$GT$$GT$17h19bc3b943684c05cE', symObjAddr: 0x248CC, symBinAddr: 0x10000F398, symSize: 0x64 }
  - { offset: 0x2BF5D, size: 0x8, addend: 0x0, symName: '__ZN4core3ptr138drop_in_place$LT$addr2line..function..LazyFunction$LT$gimli..read..endian_slice..EndianSlice$LT$gimli..endianity..LittleEndian$GT$$GT$$GT$17h19bc3b943684c05cE', symObjAddr: 0x248CC, symBinAddr: 0x10000F398, symSize: 0x64 }
  - { offset: 0x2BF72, size: 0x8, addend: 0x0, symName: '__ZN4core3ptr138drop_in_place$LT$addr2line..function..LazyFunction$LT$gimli..read..endian_slice..EndianSlice$LT$gimli..endianity..LittleEndian$GT$$GT$$GT$17h19bc3b943684c05cE', symObjAddr: 0x248CC, symBinAddr: 0x10000F398, symSize: 0x64 }
  - { offset: 0x2BF87, size: 0x8, addend: 0x0, symName: '__ZN4core3ptr138drop_in_place$LT$addr2line..function..LazyFunction$LT$gimli..read..endian_slice..EndianSlice$LT$gimli..endianity..LittleEndian$GT$$GT$$GT$17h19bc3b943684c05cE', symObjAddr: 0x248CC, symBinAddr: 0x10000F398, symSize: 0x64 }
  - { offset: 0x2C0BA, size: 0x8, addend: 0x0, symName: '__ZN4core3ptr144drop_in_place$LT$alloc..vec..Vec$LT$core..option..Option$LT$core..option..Option$LT$std..backtrace_rs..symbolize..gimli..Mapping$GT$$GT$$GT$$GT$17h9b9977c02e52d4cfE', symObjAddr: 0x24930, symBinAddr: 0x10000F3FC, symSize: 0x78 }
  - { offset: 0x2C213, size: 0x8, addend: 0x0, symName: '__ZN4core3ptr152drop_in_place$LT$alloc..vec..Vec$LT$addr2line..unit..ResUnit$LT$gimli..read..endian_slice..EndianSlice$LT$gimli..endianity..LittleEndian$GT$$GT$$GT$$GT$17h9eebe4db70c47316E', symObjAddr: 0x24A64, symBinAddr: 0x10000F474, symSize: 0xC4 }
  - { offset: 0x2C37F, size: 0x8, addend: 0x0, symName: '__ZN4core3ptr152drop_in_place$LT$alloc..vec..Vec$LT$addr2line..unit..SupUnit$LT$gimli..read..endian_slice..EndianSlice$LT$gimli..endianity..LittleEndian$GT$$GT$$GT$$GT$17h1a6fd25c0edb239bE', symObjAddr: 0x24B28, symBinAddr: 0x10000F538, symSize: 0xF4 }
  - { offset: 0x2C596, size: 0x8, addend: 0x0, symName: '__ZN4core3ptr152drop_in_place$LT$core..result..Result$LT$$RF$std..thread..thread..Thread$C$$LP$$RF$std..thread..thread..Thread$C$std..thread..thread..Thread$RP$$GT$$GT$17h631c73aeabdc258cE', symObjAddr: 0x24C1C, symBinAddr: 0x10000F62C, symSize: 0x28 }
  - { offset: 0x2C689, size: 0x8, addend: 0x0, symName: '__ZN4core3ptr154drop_in_place$LT$alloc..boxed..Box$LT$dyn$u20$core..ops..function..FnOnce$LT$$LP$$RP$$GT$$u2b$Output$u20$$u3d$$u20$$LP$$RP$$u2b$core..marker..Send$GT$$GT$17hcf1888d012f76467E', symObjAddr: 0x24C44, symBinAddr: 0x10000F654, symSize: 0x78 }
  - { offset: 0x2C780, size: 0x8, addend: 0x0, symName: '__ZN4core3ptr156drop_in_place$LT$alloc..boxed..Box$LT$$u5b$core..option..Option$LT$core..option..Option$LT$std..backtrace_rs..symbolize..gimli..Mapping$GT$$GT$$u5d$$GT$$GT$17h2052f8eaa9dba533E', symObjAddr: 0x24CBC, symBinAddr: 0x10000F6CC, symSize: 0xF8 }
  - { offset: 0x2C8A7, size: 0x8, addend: 0x0, symName: '__ZN4core3ptr159drop_in_place$LT$alloc..sync..ArcInner$LT$gimli..read..dwarf..Dwarf$LT$gimli..read..endian_slice..EndianSlice$LT$gimli..endianity..LittleEndian$GT$$GT$$GT$$GT$17hf42d8bccfc40d995E', symObjAddr: 0x24E30, symBinAddr: 0x10000F7C4, symSize: 0x5C }
  - { offset: 0x2C968, size: 0x8, addend: 0x0, symName: '__ZN4core3ptr161drop_in_place$LT$alloc..vec..Vec$LT$addr2line..function..LazyFunction$LT$gimli..read..endian_slice..EndianSlice$LT$gimli..endianity..LittleEndian$GT$$GT$$GT$$GT$17h4c74869dd2bc4f03E', symObjAddr: 0x24E8C, symBinAddr: 0x10000F820, symSize: 0xAC }
  - { offset: 0x2CBA3, size: 0x8, addend: 0x0, symName: '__ZN4core3ptr173drop_in_place$LT$alloc..boxed..Box$LT$$u5b$addr2line..function..LazyFunction$LT$gimli..read..endian_slice..EndianSlice$LT$gimli..endianity..LittleEndian$GT$$GT$$u5d$$GT$$GT$17h00295c677cc76772E', symObjAddr: 0x24FE4, symBinAddr: 0x10000F8CC, symSize: 0x9C }
  - { offset: 0x2CBBA, size: 0x8, addend: 0x0, symName: '__ZN4core3ptr173drop_in_place$LT$alloc..boxed..Box$LT$$u5b$addr2line..function..LazyFunction$LT$gimli..read..endian_slice..EndianSlice$LT$gimli..endianity..LittleEndian$GT$$GT$$u5d$$GT$$GT$17h00295c677cc76772E', symObjAddr: 0x24FE4, symBinAddr: 0x10000F8CC, symSize: 0x9C }
  - { offset: 0x2CD8E, size: 0x8, addend: 0x0, symName: '__ZN4core3ptr181drop_in_place$LT$core..option..Option$LT$gimli..read..line..IncompleteLineProgram$LT$gimli..read..endian_slice..EndianSlice$LT$gimli..endianity..LittleEndian$GT$$C$usize$GT$$GT$$GT$17hfc30bf646c7df577E', symObjAddr: 0x250F0, symBinAddr: 0x10000F968, symSize: 0x98 }
  - { offset: 0x2CFE7, size: 0x8, addend: 0x0, symName: '__ZN4core3ptr181drop_in_place$LT$core..result..Result$LT$addr2line..frame..FrameIter$LT$gimli..read..endian_slice..EndianSlice$LT$gimli..endianity..LittleEndian$GT$$GT$$C$gimli..read..Error$GT$$GT$17h4a7bfcc91b574b52E', symObjAddr: 0x25188, symBinAddr: 0x10000FA00, symSize: 0x34 }
  - { offset: 0x2D121, size: 0x8, addend: 0x0, symName: '__ZN4core3ptr184drop_in_place$LT$core..result..Result$LT$addr2line..function..Functions$LT$gimli..read..endian_slice..EndianSlice$LT$gimli..endianity..LittleEndian$GT$$GT$$C$gimli..read..Error$GT$$GT$17hbd9de3007f726533E', symObjAddr: 0x251BC, symBinAddr: 0x10000FA34, symSize: 0xD8 }
  - { offset: 0x2D3B1, size: 0x8, addend: 0x0, symName: '__ZN4core3ptr194drop_in_place$LT$core..result..Result$LT$std..sync..poison..mutex..MutexGuard$LT$$LP$$RP$$GT$$C$std..sync..poison..PoisonError$LT$std..sync..poison..mutex..MutexGuard$LT$$LP$$RP$$GT$$GT$$GT$$GT$17h83600cbfdebd55eaE', symObjAddr: 0x25308, symBinAddr: 0x10000FB0C, symSize: 0x4C }
  - { offset: 0x2D3EB, size: 0x8, addend: 0x0, symName: '__ZN4core3ptr231drop_in_place$LT$core..result..Result$LT$core..option..Option$LT$alloc..boxed..Box$LT$addr2line..unit..DwoUnit$LT$gimli..read..endian_slice..EndianSlice$LT$gimli..endianity..LittleEndian$GT$$GT$$GT$$GT$$C$gimli..read..Error$GT$$GT$17haa12acf091027d7cE', symObjAddr: 0x25398, symBinAddr: 0x10000FB58, symSize: 0xD4 }
  - { offset: 0x2D5C5, size: 0x8, addend: 0x0, symName: '__ZN4core3ptr238drop_in_place$LT$alloc..boxed..convert..$LT$impl$u20$core..convert..From$LT$alloc..string..String$GT$$u20$for$u20$alloc..boxed..Box$LT$dyn$u20$core..error..Error$u2b$core..marker..Sync$u2b$core..marker..Send$GT$$GT$..from..StringError$GT$17hbe995407d18de096E', symObjAddr: 0x2546C, symBinAddr: 0x10000FC2C, symSize: 0x18 }
  - { offset: 0x2D5DC, size: 0x8, addend: 0x0, symName: '__ZN4core3ptr238drop_in_place$LT$alloc..boxed..convert..$LT$impl$u20$core..convert..From$LT$alloc..string..String$GT$$u20$for$u20$alloc..boxed..Box$LT$dyn$u20$core..error..Error$u2b$core..marker..Sync$u2b$core..marker..Send$GT$$GT$..from..StringError$GT$17hbe995407d18de096E', symObjAddr: 0x2546C, symBinAddr: 0x10000FC2C, symSize: 0x18 }
  - { offset: 0x2D5F1, size: 0x8, addend: 0x0, symName: '__ZN4core3ptr238drop_in_place$LT$alloc..boxed..convert..$LT$impl$u20$core..convert..From$LT$alloc..string..String$GT$$u20$for$u20$alloc..boxed..Box$LT$dyn$u20$core..error..Error$u2b$core..marker..Sync$u2b$core..marker..Send$GT$$GT$..from..StringError$GT$17hbe995407d18de096E', symObjAddr: 0x2546C, symBinAddr: 0x10000FC2C, symSize: 0x18 }
  - { offset: 0x2D66F, size: 0x8, addend: 0x0, symName: '__ZN4core3ptr275drop_in_place$LT$gimli..read..line..LineRows$LT$gimli..read..endian_slice..EndianSlice$LT$gimli..endianity..LittleEndian$GT$$C$gimli..read..line..IncompleteLineProgram$LT$gimli..read..endian_slice..EndianSlice$LT$gimli..endianity..LittleEndian$GT$$C$usize$GT$$C$usize$GT$$GT$17hc33f0a77eb1489f9E', symObjAddr: 0x25484, symBinAddr: 0x10000FC44, symSize: 0x8C }
  - { offset: 0x2D8E1, size: 0x8, addend: 0x0, symName: '__ZN4core3ptr280drop_in_place$LT$$LT$alloc..collections..btree..map..IntoIter$LT$K$C$V$C$A$GT$$u20$as$u20$core..ops..drop..Drop$GT$..drop..DropGuard$LT$u64$C$core..result..Result$LT$alloc..sync..Arc$LT$gimli..read..abbrev..Abbreviations$GT$$C$gimli..read..Error$GT$$C$alloc..alloc..Global$GT$$GT$17h503cdb8bdb290de2E', symObjAddr: 0x25510, symBinAddr: 0x10000FCD0, symSize: 0x84 }
  - { offset: 0x2DA50, size: 0x8, addend: 0x0, symName: '__ZN4core3ptr284drop_in_place$LT$core..result..Result$LT$$RF$core..result..Result$LT$addr2line..line..Lines$C$gimli..read..Error$GT$$C$$LP$$RF$core..result..Result$LT$addr2line..line..Lines$C$gimli..read..Error$GT$$C$core..result..Result$LT$addr2line..line..Lines$C$gimli..read..Error$GT$$RP$$GT$$GT$17hc0fd9c80ff266abcE', symObjAddr: 0x25594, symBinAddr: 0x10000FD54, symSize: 0x10 }
  - { offset: 0x2DA81, size: 0x8, addend: 0x0, symName: '__ZN4core3ptr42drop_in_place$LT$alloc..string..String$GT$17h44efca77d66461beE', symObjAddr: 0x25738, symBinAddr: 0x10000FD64, symSize: 0x18 }
  - { offset: 0x2DA98, size: 0x8, addend: 0x0, symName: '__ZN4core3ptr42drop_in_place$LT$alloc..string..String$GT$17h44efca77d66461beE', symObjAddr: 0x25738, symBinAddr: 0x10000FD64, symSize: 0x18 }
  - { offset: 0x2DB15, size: 0x8, addend: 0x0, symName: '__ZN4core3ptr42drop_in_place$LT$std..io..error..Error$GT$17h37b0440f3ca79391E', symObjAddr: 0x25750, symBinAddr: 0x10000FD7C, symSize: 0xAC }
  - { offset: 0x2DCF8, size: 0x8, addend: 0x0, symName: '__ZN4core3ptr44drop_in_place$LT$object..read..ObjectMap$GT$17hdef1ffb167f63c4cE', symObjAddr: 0x257FC, symBinAddr: 0x10000FE28, symSize: 0x58 }
  - { offset: 0x2DE27, size: 0x8, addend: 0x0, symName: '__ZN4core3ptr46drop_in_place$LT$alloc..vec..Vec$LT$u8$GT$$GT$17heecb70de6ca18689E', symObjAddr: 0x25914, symBinAddr: 0x10000FE80, symSize: 0x18 }
  - { offset: 0x2DEA5, size: 0x8, addend: 0x0, symName: '__ZN4core3ptr46drop_in_place$LT$std..io..stdio..StdinLock$GT$17ha6b6efdee45e5222E', symObjAddr: 0x2592C, symBinAddr: 0x10000FE98, symSize: 0x54 }
  - { offset: 0x2DEBC, size: 0x8, addend: 0x0, symName: '__ZN4core3ptr46drop_in_place$LT$std..io..stdio..StdinLock$GT$17ha6b6efdee45e5222E', symObjAddr: 0x2592C, symBinAddr: 0x10000FE98, symSize: 0x54 }
  - { offset: 0x2DED1, size: 0x8, addend: 0x0, symName: '__ZN4core3ptr46drop_in_place$LT$std..io..stdio..StdinLock$GT$17ha6b6efdee45e5222E', symObjAddr: 0x2592C, symBinAddr: 0x10000FE98, symSize: 0x54 }
  - { offset: 0x2DFB2, size: 0x8, addend: 0x0, symName: '__ZN4core3ptr48drop_in_place$LT$alloc..ffi..c_str..NulError$GT$17h698d97f860862aedE', symObjAddr: 0x25A64, symBinAddr: 0x10000FEEC, symSize: 0x18 }
  - { offset: 0x2DFC9, size: 0x8, addend: 0x0, symName: '__ZN4core3ptr48drop_in_place$LT$alloc..ffi..c_str..NulError$GT$17h698d97f860862aedE', symObjAddr: 0x25A64, symBinAddr: 0x10000FEEC, symSize: 0x18 }
  - { offset: 0x2E053, size: 0x8, addend: 0x0, symName: '__ZN4core3ptr557drop_in_place$LT$core..result..Result$LT$$RF$core..result..Result$LT$addr2line..function..Function$LT$gimli..read..endian_slice..EndianSlice$LT$gimli..endianity..LittleEndian$GT$$GT$$C$gimli..read..Error$GT$$C$$LP$$RF$core..result..Result$LT$addr2line..function..Function$LT$gimli..read..endian_slice..EndianSlice$LT$gimli..endianity..LittleEndian$GT$$GT$$C$gimli..read..Error$GT$$C$core..result..Result$LT$addr2line..function..Function$LT$gimli..read..endian_slice..EndianSlice$LT$gimli..endianity..LittleEndian$GT$$GT$$C$gimli..read..Error$GT$$RP$$GT$$GT$17ha976e407de4161a3E', symObjAddr: 0x25D48, symBinAddr: 0x10000FF04, symSize: 0x64 }
  - { offset: 0x2E231, size: 0x8, addend: 0x0, symName: '__ZN4core3ptr55drop_in_place$LT$gimli..read..abbrev..Abbreviations$GT$17h5a9d76cb3f02455eE', symObjAddr: 0x25DAC, symBinAddr: 0x10000FF68, symSize: 0x118 }
  - { offset: 0x2E591, size: 0x8, addend: 0x0, symName: '__ZN4core3ptr560drop_in_place$LT$core..result..Result$LT$$RF$core..result..Result$LT$addr2line..function..Functions$LT$gimli..read..endian_slice..EndianSlice$LT$gimli..endianity..LittleEndian$GT$$GT$$C$gimli..read..Error$GT$$C$$LP$$RF$core..result..Result$LT$addr2line..function..Functions$LT$gimli..read..endian_slice..EndianSlice$LT$gimli..endianity..LittleEndian$GT$$GT$$C$gimli..read..Error$GT$$C$core..result..Result$LT$addr2line..function..Functions$LT$gimli..read..endian_slice..EndianSlice$LT$gimli..endianity..LittleEndian$GT$$GT$$C$gimli..read..Error$GT$$RP$$GT$$GT$17h2d1547f395e203f9E', symObjAddr: 0x25F48, symBinAddr: 0x100010080, symSize: 0x10 }
  - { offset: 0x2E5E8, size: 0x8, addend: 0x0, symName: '__ZN4core3ptr60drop_in_place$LT$gimli..read..abbrev..AbbreviationsCache$GT$17ha2c55ed34e27a292E', symObjAddr: 0x25F58, symBinAddr: 0x100010090, symSize: 0xCC }
  - { offset: 0x2E790, size: 0x8, addend: 0x0, symName: '__ZN4core3ptr64drop_in_place$LT$std..sys..pal..unix..sync..mutex..AttrGuard$GT$17h910d49d19c5a02dfE', symObjAddr: 0x26090, symBinAddr: 0x10001015C, symSize: 0x44 }
  - { offset: 0x2E7CB, size: 0x8, addend: 0x0, symName: '__ZN4core3ptr65drop_in_place$LT$alloc..vec..Vec$LT$alloc..string..String$GT$$GT$17h1fdee93beb24a00fE', symObjAddr: 0x2614C, symBinAddr: 0x1000101A0, symSize: 0x80 }
  - { offset: 0x2E93B, size: 0x8, addend: 0x0, symName: '__ZN4core3ptr65drop_in_place$LT$std..backtrace_rs..symbolize..gimli..Context$GT$17h731a8657823bbb59E', symObjAddr: 0x261CC, symBinAddr: 0x100010220, symSize: 0xE8 }
  - { offset: 0x2EBCC, size: 0x8, addend: 0x0, symName: '__ZN4core3ptr66drop_in_place$LT$std..backtrace_rs..backtrace..libunwind..Bomb$GT$17hd488f39100c40654E', symObjAddr: 0x262B8, symBinAddr: 0x100010308, symSize: 0x28 }
  - { offset: 0x2EC02, size: 0x8, addend: 0x0, symName: '__ZN4core3ptr701drop_in_place$LT$core..result..Result$LT$$RF$core..result..Result$LT$core..option..Option$LT$alloc..boxed..Box$LT$addr2line..unit..DwoUnit$LT$gimli..read..endian_slice..EndianSlice$LT$gimli..endianity..LittleEndian$GT$$GT$$GT$$GT$$C$gimli..read..Error$GT$$C$$LP$$RF$core..result..Result$LT$core..option..Option$LT$alloc..boxed..Box$LT$addr2line..unit..DwoUnit$LT$gimli..read..endian_slice..EndianSlice$LT$gimli..endianity..LittleEndian$GT$$GT$$GT$$GT$$C$gimli..read..Error$GT$$C$core..result..Result$LT$core..option..Option$LT$alloc..boxed..Box$LT$addr2line..unit..DwoUnit$LT$gimli..read..endian_slice..EndianSlice$LT$gimli..endianity..LittleEndian$GT$$GT$$GT$$GT$$C$gimli..read..Error$GT$$RP$$GT$$GT$17h24f573f4dbffc5b0E', symObjAddr: 0x262E0, symBinAddr: 0x100010330, symSize: 0x14 }
  - { offset: 0x2EC9A, size: 0x8, addend: 0x0, symName: '__ZN4core3ptr70drop_in_place$LT$std..backtrace_rs..symbolize..gimli..stash..Stash$GT$17h27c6c4cff58d5bdaE', symObjAddr: 0x26374, symBinAddr: 0x100010344, symSize: 0xB8 }
  - { offset: 0x2EF3D, size: 0x8, addend: 0x0, symName: '__ZN4core3ptr71drop_in_place$LT$std..backtrace_rs..symbolize..gimli..macho..Object$GT$17hd643389d596d83d6E', symObjAddr: 0x2642C, symBinAddr: 0x1000103FC, symSize: 0xD8 }
  - { offset: 0x2F202, size: 0x8, addend: 0x0, symName: '__ZN4core3ptr71drop_in_place$LT$std..panicking..panic_handler..FormatStringPayload$GT$17h3cba9284e467d35fE', symObjAddr: 0x26504, symBinAddr: 0x1000104D4, symSize: 0x1C }
  - { offset: 0x2F2BD, size: 0x8, addend: 0x0, symName: '__ZN4core3ptr72drop_in_place$LT$core..option..Option$LT$object..read..ObjectMap$GT$$GT$17h618c7ce4d4f7ecc1E', symObjAddr: 0x26520, symBinAddr: 0x1000104F0, symSize: 0x64 }
  - { offset: 0x2F435, size: 0x8, addend: 0x0, symName: '__ZN4core3ptr73drop_in_place$LT$alloc..vec..Vec$LT$addr2line..line..LineSequence$GT$$GT$17h9f1b8be2da957ee3E', symObjAddr: 0x26584, symBinAddr: 0x100010554, symSize: 0x84 }
  - { offset: 0x2F58C, size: 0x8, addend: 0x0, symName: '__ZN4core3ptr77drop_in_place$LT$alloc..boxed..Box$LT$$u5b$alloc..string..String$u5d$$GT$$GT$17h1f03c8b6699a7b60E', symObjAddr: 0x26640, symBinAddr: 0x1000105D8, symSize: 0x70 }
  - { offset: 0x2F5A3, size: 0x8, addend: 0x0, symName: '__ZN4core3ptr77drop_in_place$LT$alloc..boxed..Box$LT$$u5b$alloc..string..String$u5d$$GT$$GT$17h1f03c8b6699a7b60E', symObjAddr: 0x26640, symBinAddr: 0x1000105D8, symSize: 0x70 }
  - { offset: 0x2F6A0, size: 0x8, addend: 0x0, symName: '__ZN4core3ptr79drop_in_place$LT$std..sync..poison..rwlock..RwLockReadGuard$LT$$LP$$RP$$GT$$GT$17h1f015db55c9510f7E', symObjAddr: 0x266E0, symBinAddr: 0x100010648, symSize: 0x58 }
  - { offset: 0x2F73A, size: 0x8, addend: 0x0, symName: '__ZN4core3ptr81drop_in_place$LT$core..result..Result$LT$$LP$$RP$$C$std..io..error..Error$GT$$GT$17h11e9d0e0e885e76dE', symObjAddr: 0x267E4, symBinAddr: 0x1000106A0, symSize: 0x10 }
  - { offset: 0x2F767, size: 0x8, addend: 0x0, symName: '__ZN4core3ptr82drop_in_place$LT$alloc..sync..ArcInner$LT$std..sys..fs..unix..InnerReadDir$GT$$GT$17heb20e9e8185a2b3eE', symObjAddr: 0x268C8, symBinAddr: 0x1000106B0, symSize: 0x60 }
  - { offset: 0x2F909, size: 0x8, addend: 0x0, symName: '__ZN4core3ptr90drop_in_place$LT$std..io..buffered..bufwriter..BufWriter$LT$W$GT$..flush_buf..BufGuard$GT$17h04a4c6d024fac699E', symObjAddr: 0x269B0, symBinAddr: 0x100010710, symSize: 0x5C }
  - { offset: 0x2FA8B, size: 0x8, addend: 0x0, symName: '__ZN4core3ptr92drop_in_place$LT$core..result..Result$LT$addr2line..line..Lines$C$gimli..read..Error$GT$$GT$17h4dd20ca503f457e7E', symObjAddr: 0x26A5C, symBinAddr: 0x10001076C, symSize: 0xE4 }
  - { offset: 0x2FCCF, size: 0x8, addend: 0x0, symName: '__ZN4core3ptr93drop_in_place$LT$core..option..Option$LT$std..backtrace_rs..symbolize..gimli..Mapping$GT$$GT$17ha5d709dddba6e7b5E', symObjAddr: 0x26B40, symBinAddr: 0x100010850, symSize: 0x6C }
  - { offset: 0x2FD5C, size: 0x8, addend: 0x0, symName: '__ZN4core3ptr95drop_in_place$LT$std..io..buffered..linewriter..LineWriter$LT$std..io..stdio..StdoutRaw$GT$$GT$17h2564feb49e555d78E', symObjAddr: 0x26BAC, symBinAddr: 0x1000108BC, symSize: 0xF8 }
  - { offset: 0x324DE, size: 0x8, addend: 0x0, symName: __ZN4core5slice4sort8unstable7ipnsort17ha2fd7fd1a5f481dfE, symObjAddr: 0x305F4, symBinAddr: 0x1000175AC, symSize: 0xEC }
  - { offset: 0x32620, size: 0x8, addend: 0x0, symName: __ZN4core5slice4sort8unstable7ipnsort17heb84f7b2b9ebec1dE, symObjAddr: 0x306E0, symBinAddr: 0x100017698, symSize: 0x1A8 }
  - { offset: 0x328FD, size: 0x8, addend: 0x0, symName: __ZN4core5slice4sort8unstable8heapsort8heapsort17h366b45ae87e4c9e6E, symObjAddr: 0x30888, symBinAddr: 0x100017840, symSize: 0x160 }
  - { offset: 0x32C0D, size: 0x8, addend: 0x0, symName: __ZN4core5slice4sort8unstable8heapsort8heapsort17ha93aca1a656eb69cE, symObjAddr: 0x309E8, symBinAddr: 0x1000179A0, symSize: 0x100 }
  - { offset: 0x32E9D, size: 0x8, addend: 0x0, symName: __ZN4core5slice4sort8unstable9quicksort9quicksort17h0a79f2ab91ca87d0E, symObjAddr: 0x30AE8, symBinAddr: 0x100017AA0, symSize: 0x500 }
  - { offset: 0x33947, size: 0x8, addend: 0x0, symName: __ZN4core5slice4sort8unstable9quicksort9quicksort17h881f94ab34c2130fE, symObjAddr: 0x30FE8, symBinAddr: 0x100017FA0, symSize: 0x3D8 }
  - { offset: 0x340FF, size: 0x8, addend: 0x0, symName: __ZN4core5slice4sort6stable14driftsort_main17h6253215b390bf02fE, symObjAddr: 0x2B2B4, symBinAddr: 0x10001226C, symSize: 0x128 }
  - { offset: 0x3435F, size: 0x8, addend: 0x0, symName: __ZN4core5slice4sort6stable14driftsort_main17h88cdaf93535f336eE, symObjAddr: 0x2B3DC, symBinAddr: 0x100012394, symSize: 0x124 }
  - { offset: 0x3466C, size: 0x8, addend: 0x0, symName: __ZN4core5slice4sort6stable14driftsort_main17hb6618f71c99af48bE, symObjAddr: 0x2B500, symBinAddr: 0x1000124B8, symSize: 0x124 }
  - { offset: 0x34979, size: 0x8, addend: 0x0, symName: __ZN4core5slice4sort6stable14driftsort_main17hc011707cede5b9a0E, symObjAddr: 0x2B624, symBinAddr: 0x1000125DC, symSize: 0x150 }
  - { offset: 0x34CA6, size: 0x8, addend: 0x0, symName: __ZN4core5slice4sort6stable14driftsort_main17he8b0feb11b300439E, symObjAddr: 0x2B774, symBinAddr: 0x10001272C, symSize: 0x124 }
  - { offset: 0x34FB3, size: 0x8, addend: 0x0, symName: __ZN4core5slice4sort6stable14driftsort_main17hfdd27d9a85feccd0E, symObjAddr: 0x2B898, symBinAddr: 0x100012850, symSize: 0x150 }
  - { offset: 0x354F5, size: 0x8, addend: 0x0, symName: __ZN4core5slice4sort6stable5drift4sort17h10b0fbd18d5a1ad6E, symObjAddr: 0x2B9E8, symBinAddr: 0x1000129A0, symSize: 0x4F4 }
  - { offset: 0x35B9E, size: 0x8, addend: 0x0, symName: __ZN4core5slice4sort6stable5drift4sort17h227cf7c2386decf7E, symObjAddr: 0x2BEDC, symBinAddr: 0x100012E94, symSize: 0x4D8 }
  - { offset: 0x361B3, size: 0x8, addend: 0x0, symName: __ZN4core5slice4sort6stable5drift4sort17h6f876c1b2d5223c3E, symObjAddr: 0x2C3B4, symBinAddr: 0x10001336C, symSize: 0x538 }
  - { offset: 0x36846, size: 0x8, addend: 0x0, symName: __ZN4core5slice4sort6stable5drift4sort17hc6567bc5a6353febE, symObjAddr: 0x2C8EC, symBinAddr: 0x1000138A4, symSize: 0x540 }
  - { offset: 0x36F05, size: 0x8, addend: 0x0, symName: __ZN4core5slice4sort6stable5drift4sort17hca7bf174aab6b61aE, symObjAddr: 0x2CE2C, symBinAddr: 0x100013DE4, symSize: 0x4F4 }
  - { offset: 0x375AE, size: 0x8, addend: 0x0, symName: __ZN4core5slice4sort6stable5drift4sort17hefcf48b298e6ecb8E, symObjAddr: 0x2D320, symBinAddr: 0x1000142D8, symSize: 0x5EC }
  - { offset: 0x37EBC, size: 0x8, addend: 0x0, symName: __ZN4core5slice4sort6stable9quicksort9quicksort17h0ba6024b4957a241E, symObjAddr: 0x2D90C, symBinAddr: 0x1000148C4, symSize: 0x80C }
  - { offset: 0x38E6A, size: 0x8, addend: 0x0, symName: __ZN4core5slice4sort6stable9quicksort9quicksort17h55fc6055d7dedad7E, symObjAddr: 0x2E118, symBinAddr: 0x1000150D0, symSize: 0x6CC }
  - { offset: 0x39938, size: 0x8, addend: 0x0, symName: __ZN4core5slice4sort6stable9quicksort9quicksort17h98d340865a72addcE, symObjAddr: 0x2E7E4, symBinAddr: 0x10001579C, symSize: 0x820 }
  - { offset: 0x3A519, size: 0x8, addend: 0x0, symName: __ZN4core5slice4sort6stable9quicksort9quicksort17hbab3d2c3a58af58bE, symObjAddr: 0x2F004, symBinAddr: 0x100015FBC, symSize: 0x7FC }
  - { offset: 0x3B0EC, size: 0x8, addend: 0x0, symName: __ZN4core5slice4sort6stable9quicksort9quicksort17hd24651f8e1867243E, symObjAddr: 0x2F800, symBinAddr: 0x1000167B8, symSize: 0x730 }
  - { offset: 0x3B83A, size: 0x8, addend: 0x0, symName: __ZN4core5slice4sort6stable9quicksort9quicksort17he71ec04d76bbc7f5E, symObjAddr: 0x2FF30, symBinAddr: 0x100016EE8, symSize: 0x6C4 }
  - { offset: 0x3C3C1, size: 0x8, addend: 0x0, symName: __ZN4core5slice4sort6shared9smallsort12sort4_stable17h1fc561724a0dd314E, symObjAddr: 0x2A158, symBinAddr: 0x100011110, symSize: 0x194 }
  - { offset: 0x3C564, size: 0x8, addend: 0x0, symName: __ZN4core5slice4sort6shared9smallsort12sort4_stable17h63f6e002cac3580aE, symObjAddr: 0x2A2EC, symBinAddr: 0x1000112A4, symSize: 0x180 }
  - { offset: 0x3C980, size: 0x8, addend: 0x0, symName: __ZN4core5slice4sort6shared9smallsort12sort8_stable17h16c5564379177297E, symObjAddr: 0x2A46C, symBinAddr: 0x100011424, symSize: 0x2B8 }
  - { offset: 0x3CE5A, size: 0x8, addend: 0x0, symName: __ZN4core5slice4sort6shared9smallsort18small_sort_general17h87f0b241793a6309E, symObjAddr: 0x2A724, symBinAddr: 0x1000116DC, symSize: 0x4A0 }
  - { offset: 0x3D55F, size: 0x8, addend: 0x0, symName: __ZN4core5slice4sort6shared9smallsort18small_sort_general17hac2480c67a011715E, symObjAddr: 0x2ABC4, symBinAddr: 0x100011B7C, symSize: 0x408 }
  - { offset: 0x3DA7C, size: 0x8, addend: 0x0, symName: __ZN4core5slice4sort6shared9smallsort25insertion_sort_shift_left17h31276aa5bbcc1c4bE, symObjAddr: 0x2AFCC, symBinAddr: 0x100011F84, symSize: 0xB8 }
  - { offset: 0x3DBA7, size: 0x8, addend: 0x0, symName: __ZN4core5slice4sort6shared9smallsort25insertion_sort_shift_left17h6735a24400ab317aE, symObjAddr: 0x2B084, symBinAddr: 0x10001203C, symSize: 0xA8 }
  - { offset: 0x3DC6F, size: 0x8, addend: 0x0, symName: __ZN4core5slice4sort6shared9smallsort25insertion_sort_shift_left17hddee364ed3987a75E, symObjAddr: 0x2B12C, symBinAddr: 0x1000120E4, symSize: 0xF4 }
  - { offset: 0x3DE33, size: 0x8, addend: 0x0, symName: __ZN4core5slice4sort6shared9smallsort25insertion_sort_shift_left17hf9fe8ef085d1d4e0E, symObjAddr: 0x2B220, symBinAddr: 0x1000121D8, symSize: 0x94 }
  - { offset: 0x3E0D8, size: 0x8, addend: 0x0, symName: __ZN4core5slice4sort6shared5pivot11median3_rec17h1b2cb09e6ace4039E, symObjAddr: 0x29A34, symBinAddr: 0x1000109EC, symSize: 0xD0 }
  - { offset: 0x3E1E5, size: 0x8, addend: 0x0, symName: __ZN4core5slice4sort6shared5pivot11median3_rec17h229546dbbd7cb5e9E, symObjAddr: 0x29B04, symBinAddr: 0x100010ABC, symSize: 0x11C }
  - { offset: 0x3E2F3, size: 0x8, addend: 0x0, symName: __ZN4core5slice4sort6shared5pivot11median3_rec17h5e0f31e9bcf325edE, symObjAddr: 0x29C20, symBinAddr: 0x100010BD8, symSize: 0xCC }
  - { offset: 0x3E42A, size: 0x8, addend: 0x0, symName: __ZN4core5slice4sort6shared5pivot11median3_rec17h66ddf1e177e1e89dE, symObjAddr: 0x29CEC, symBinAddr: 0x100010CA4, symSize: 0xD0 }
  - { offset: 0x3E535, size: 0x8, addend: 0x0, symName: __ZN4core5slice4sort6shared5pivot11median3_rec17h689acc3f56546b79E, symObjAddr: 0x29DBC, symBinAddr: 0x100010D74, symSize: 0xCC }
  - { offset: 0x3E640, size: 0x8, addend: 0x0, symName: __ZN4core5slice4sort6shared5pivot11median3_rec17hbe53e882f13a88fcE, symObjAddr: 0x29E88, symBinAddr: 0x100010E40, symSize: 0x134 }
  - { offset: 0x3E87B, size: 0x8, addend: 0x0, symName: __ZN4core5slice4sort6shared5pivot11median3_rec17hcd8e2cb7785765c8E, symObjAddr: 0x29FBC, symBinAddr: 0x100010F74, symSize: 0xCC }
  - { offset: 0x3E986, size: 0x8, addend: 0x0, symName: __ZN4core5slice4sort6shared5pivot11median3_rec17he435211e45a66f97E, symObjAddr: 0x2A088, symBinAddr: 0x100011040, symSize: 0xD0 }
  - { offset: 0x3F3EE, size: 0x8, addend: 0x0, symName: __ZN4core5panic12PanicPayload6as_str17h735c4eaf71d46207E, symObjAddr: 0x29A2C, symBinAddr: 0x1000109E4, symSize: 0x8 }
  - { offset: 0x40B5E, size: 0x8, addend: 0x0, symName: '__ZN42_$LT$$RF$T$u20$as$u20$core..fmt..Debug$GT$3fmt17h104f154fd1fc4601E', symObjAddr: 0x225D4, symBinAddr: 0x10000E7BC, symSize: 0x10 }
  - { offset: 0x40B8F, size: 0x8, addend: 0x0, symName: '__ZN42_$LT$$RF$T$u20$as$u20$core..fmt..Debug$GT$3fmt17h1994b120df641ef0E', symObjAddr: 0x22658, symBinAddr: 0x10000E7CC, symSize: 0x1C }
  - { offset: 0x40BD6, size: 0x8, addend: 0x0, symName: '__ZN42_$LT$$RF$T$u20$as$u20$core..fmt..Debug$GT$3fmt17h6e7f3be7b4016280E', symObjAddr: 0x227F0, symBinAddr: 0x10000E7E8, symSize: 0x74 }
  - { offset: 0x40CED, size: 0x8, addend: 0x0, symName: '__ZN42_$LT$$RF$T$u20$as$u20$core..fmt..Debug$GT$3fmt17h905741e25221bc1dE', symObjAddr: 0x229E8, symBinAddr: 0x10000E85C, symSize: 0x1C }
  - { offset: 0x40D35, size: 0x8, addend: 0x0, symName: '__ZN42_$LT$$RF$T$u20$as$u20$core..fmt..Debug$GT$3fmt17h978ddb7012dacfceE', symObjAddr: 0x22BF4, symBinAddr: 0x10000E878, symSize: 0x10 }
  - { offset: 0x40D82, size: 0x8, addend: 0x0, symName: '__ZN4core3fmt3num50_$LT$impl$u20$core..fmt..Debug$u20$for$u20$i32$GT$3fmt17h440176cd697408acE', symObjAddr: 0x23310, symBinAddr: 0x10000E8F8, symSize: 0x18 }
  - { offset: 0x40D9A, size: 0x8, addend: 0x0, symName: '__ZN4core3fmt3num50_$LT$impl$u20$core..fmt..Debug$u20$for$u20$i32$GT$3fmt17h440176cd697408acE', symObjAddr: 0x23310, symBinAddr: 0x10000E8F8, symSize: 0x18 }
  - { offset: 0x40DC7, size: 0x8, addend: 0x0, symName: '__ZN4core3fmt3num52_$LT$impl$u20$core..fmt..Debug$u20$for$u20$usize$GT$3fmt17h5bc13837c07b2293E', symObjAddr: 0x23370, symBinAddr: 0x10000E910, symSize: 0x18 }
  - { offset: 0x40DDF, size: 0x8, addend: 0x0, symName: '__ZN4core3fmt3num52_$LT$impl$u20$core..fmt..Debug$u20$for$u20$usize$GT$3fmt17h5bc13837c07b2293E', symObjAddr: 0x23370, symBinAddr: 0x10000E910, symSize: 0x18 }
  - { offset: 0x40E19, size: 0x8, addend: 0x0, symName: '__ZN44_$LT$$RF$T$u20$as$u20$core..fmt..Display$GT$3fmt17hd1e3cd02b5d2eab2E', symObjAddr: 0x22F94, symBinAddr: 0x10000E888, symSize: 0x10 }
  - { offset: 0x40E33, size: 0x8, addend: 0x0, symName: '__ZN44_$LT$$RF$T$u20$as$u20$core..fmt..Display$GT$3fmt17hf7b887e1a5feee1bE', symObjAddr: 0x22FA4, symBinAddr: 0x10000E898, symSize: 0x60 }
  - { offset: 0x40EC7, size: 0x8, addend: 0x0, symName: __ZN4core3fmt5Write10write_char17h1a47b3bf5ad7e7beE, symObjAddr: 0x234B0, symBinAddr: 0x10000E928, symSize: 0x138 }
  - { offset: 0x4104F, size: 0x8, addend: 0x0, symName: __ZN4core3fmt5Write10write_char17h21efb9e99d2f038aE, symObjAddr: 0x235E8, symBinAddr: 0x10000EA60, symSize: 0x168 }
  - { offset: 0x4119D, size: 0x8, addend: 0x0, symName: __ZN4core3fmt5Write10write_char17hf33333ce38f96191E, symObjAddr: 0x239E0, symBinAddr: 0x10000EBC8, symSize: 0x110 }
  - { offset: 0x4138D, size: 0x8, addend: 0x0, symName: __ZN4core3fmt5Write9write_fmt17h56c4adeeb9afe0f1E, symObjAddr: 0x23AF0, symBinAddr: 0x10000ECD8, symSize: 0x14 }
  - { offset: 0x413BC, size: 0x8, addend: 0x0, symName: __ZN4core3fmt5Write9write_fmt17hb4f1b8e98a134de5E, symObjAddr: 0x23B2C, symBinAddr: 0x10000ECEC, symSize: 0x14 }
  - { offset: 0x413EB, size: 0x8, addend: 0x0, symName: __ZN4core3fmt5Write9write_fmt17hbc45685f9f48811dE, symObjAddr: 0x23B40, symBinAddr: 0x10000ED00, symSize: 0x14 }
  - { offset: 0x4141A, size: 0x8, addend: 0x0, symName: __ZN4core3fmt5Write9write_fmt17hc10dca35da9861baE, symObjAddr: 0x23B54, symBinAddr: 0x10000ED14, symSize: 0x14 }
  - { offset: 0x41475, size: 0x8, addend: 0x0, symName: '__ZN50_$LT$$BP$mut$u20$T$u20$as$u20$core..fmt..Debug$GT$3fmt17h79c0edfda5e64b59E', symObjAddr: 0x31470, symBinAddr: 0x100018378, symSize: 0x8 }
  - { offset: 0x41493, size: 0x8, addend: 0x0, symName: '__ZN50_$LT$$BP$mut$u20$T$u20$as$u20$core..fmt..Debug$GT$3fmt17h79c0edfda5e64b59E', symObjAddr: 0x31470, symBinAddr: 0x100018378, symSize: 0x8 }
  - { offset: 0x414C1, size: 0x8, addend: 0x0, symName: '__ZN52_$LT$$RF$mut$u20$T$u20$as$u20$core..fmt..Display$GT$3fmt17hf9725a8950edb9e6E', symObjAddr: 0x31A04, symBinAddr: 0x100018380, symSize: 0x10 }
  - { offset: 0x41564, size: 0x8, addend: 0x0, symName: '__ZN4core3ops8function6FnOnce40call_once$u7b$$u7b$vtable.shim$u7d$$u7d$17h078c0f1e6f1d240aE', symObjAddr: 0x23E08, symBinAddr: 0x10000ED28, symSize: 0x98 }
  - { offset: 0x416A9, size: 0x8, addend: 0x0, symName: '__ZN4core3ops8function6FnOnce40call_once$u7b$$u7b$vtable.shim$u7d$$u7d$17h1bc9adffd10783cfE', symObjAddr: 0x23EA8, symBinAddr: 0x10000EDC0, symSize: 0xC }
  - { offset: 0x416F9, size: 0x8, addend: 0x0, symName: '__ZN4core3ops8function6FnOnce40call_once$u7b$$u7b$vtable.shim$u7d$$u7d$17h4aca4a6a74d4a8e5E', symObjAddr: 0x23EF4, symBinAddr: 0x10000EDCC, symSize: 0x4 }
  - { offset: 0x41716, size: 0x8, addend: 0x0, symName: '__ZN4core3ops8function6FnOnce40call_once$u7b$$u7b$vtable.shim$u7d$$u7d$17h4aca4a6a74d4a8e5E', symObjAddr: 0x23EF4, symBinAddr: 0x10000EDCC, symSize: 0x4 }
  - { offset: 0x41734, size: 0x8, addend: 0x0, symName: '__ZN4core3ops8function6FnOnce40call_once$u7b$$u7b$vtable.shim$u7d$$u7d$17h4fc5abfdd4ca4184E', symObjAddr: 0x23EF8, symBinAddr: 0x10000EDD0, symSize: 0x4 }
  - { offset: 0x41751, size: 0x8, addend: 0x0, symName: '__ZN4core3ops8function6FnOnce40call_once$u7b$$u7b$vtable.shim$u7d$$u7d$17h4fc5abfdd4ca4184E', symObjAddr: 0x23EF8, symBinAddr: 0x10000EDD0, symSize: 0x4 }
  - { offset: 0x4176E, size: 0x8, addend: 0x0, symName: '__ZN4core3ops8function6FnOnce40call_once$u7b$$u7b$vtable.shim$u7d$$u7d$17h73e61a52df901dc4E', symObjAddr: 0x23F6C, symBinAddr: 0x10000EDD4, symSize: 0x60 }
  - { offset: 0x4184F, size: 0x8, addend: 0x0, symName: '__ZN4core3ops8function6FnOnce40call_once$u7b$$u7b$vtable.shim$u7d$$u7d$17h9abc3948d5d168ddE', symObjAddr: 0x23FCC, symBinAddr: 0x10000EE34, symSize: 0x28 }
  - { offset: 0x4188A, size: 0x8, addend: 0x0, symName: '__ZN4core3ops8function6FnOnce40call_once$u7b$$u7b$vtable.shim$u7d$$u7d$17hc93be32bfdd8041aE', symObjAddr: 0x23FF4, symBinAddr: 0x10000EE5C, symSize: 0xC }
  - { offset: 0x4251A, size: 0x8, addend: 0x0, symName: '__ZN36_$LT$T$u20$as$u20$core..any..Any$GT$7type_id17h88c9699ce078cb11E', symObjAddr: 0xC98, symBinAddr: 0x100002D10, symSize: 0x14 }
  - { offset: 0x42537, size: 0x8, addend: 0x0, symName: '__ZN36_$LT$T$u20$as$u20$core..any..Any$GT$7type_id17h88c9699ce078cb11E', symObjAddr: 0xC98, symBinAddr: 0x100002D10, symSize: 0x14 }
  - { offset: 0x42549, size: 0x8, addend: 0x0, symName: '__ZN36_$LT$T$u20$as$u20$core..any..Any$GT$7type_id17he887be568d7b4f7fE', symObjAddr: 0xCC0, symBinAddr: 0x100002D24, symSize: 0x14 }
  - { offset: 0x42566, size: 0x8, addend: 0x0, symName: '__ZN36_$LT$T$u20$as$u20$core..any..Any$GT$7type_id17he887be568d7b4f7fE', symObjAddr: 0xCC0, symBinAddr: 0x100002D24, symSize: 0x14 }
  - { offset: 0x43A3A, size: 0x8, addend: 0x0, symName: '__ZN4core4cell4once17OnceCell$LT$T$GT$8try_init17h0929c7782c7c6113E', symObjAddr: 0x26CA4, symBinAddr: 0x100032DF8, symSize: 0x48 }
  - { offset: 0x43A58, size: 0x8, addend: 0x0, symName: '__ZN4core4cell4once17OnceCell$LT$T$GT$8try_init17h0929c7782c7c6113E', symObjAddr: 0x26CA4, symBinAddr: 0x100032DF8, symSize: 0x48 }
  - { offset: 0x43A6D, size: 0x8, addend: 0x0, symName: '__ZN4core4cell4once17OnceCell$LT$T$GT$8try_init17h0929c7782c7c6113E', symObjAddr: 0x26CA4, symBinAddr: 0x100032DF8, symSize: 0x48 }
  - { offset: 0x43A81, size: 0x8, addend: 0x0, symName: '__ZN4core4cell4once17OnceCell$LT$T$GT$8try_init17h0929c7782c7c6113E', symObjAddr: 0x26CA4, symBinAddr: 0x100032DF8, symSize: 0x48 }
  - { offset: 0x43AC0, size: 0x8, addend: 0x0, symName: '__ZN4core4cell4once17OnceCell$LT$T$GT$8try_init17h9f381e4ff45761ecE', symObjAddr: 0x26CEC, symBinAddr: 0x100032E40, symSize: 0xBF0 }
  - { offset: 0x45466, size: 0x8, addend: 0x0, symName: '__ZN4core4cell4once17OnceCell$LT$T$GT$8try_init17hb493d3cc2d108906E', symObjAddr: 0x278DC, symBinAddr: 0x100033A30, symSize: 0x1874 }
  - { offset: 0x48991, size: 0x8, addend: 0x0, symName: '__ZN4core4cell4once17OnceCell$LT$T$GT$8try_init17hec033f1c914fd0ecE', symObjAddr: 0x29150, symBinAddr: 0x1000352A4, symSize: 0xFC }
  - { offset: 0x48C42, size: 0x8, addend: 0x0, symName: '__ZN4core4cell4once17OnceCell$LT$T$GT$8try_init17hf3420f4b52326165E', symObjAddr: 0x2924C, symBinAddr: 0x1000353A0, symSize: 0x61C }
  - { offset: 0x497D0, size: 0x8, addend: 0x0, symName: '__ZN4core4cell4once17OnceCell$LT$T$GT$8try_init17hf4bef2813c752d07E', symObjAddr: 0x29868, symBinAddr: 0x1000359BC, symSize: 0x68 }
  - { offset: 0x49C80, size: 0x8, addend: 0x0, symName: '__ZN55_$LT$$RF$str$u20$as$u20$core..str..pattern..Pattern$GT$15is_contained_in17h8dc77c4e428b69b8E', symObjAddr: 0x31FF0, symBinAddr: 0x100018390, symSize: 0x3C0 }
  - { offset: 0x4A205, size: 0x8, addend: 0x0, symName: __ZN4core5error5Error11description17h33a36c7d224a34bbE, symObjAddr: 0x299CC, symBinAddr: 0x1000109B4, symSize: 0x10 }
  - { offset: 0x4A220, size: 0x8, addend: 0x0, symName: __ZN4core5error5Error5cause17h41203c29c82b6ff3E, symObjAddr: 0x299F4, symBinAddr: 0x1000109C4, symSize: 0x8 }
  - { offset: 0x4A23B, size: 0x8, addend: 0x0, symName: __ZN4core5error5Error7provide17haedab4d4bee90b1aE, symObjAddr: 0x29A00, symBinAddr: 0x1000109CC, symSize: 0x4 }
  - { offset: 0x4A256, size: 0x8, addend: 0x0, symName: __ZN4core5error5Error7type_id17h704006140a7a6498E, symObjAddr: 0x29A18, symBinAddr: 0x1000109D0, symSize: 0x14 }
  - { offset: 0x4A275, size: 0x8, addend: 0x0, symName: __ZN4core5error5Error7type_id17h704006140a7a6498E, symObjAddr: 0x29A18, symBinAddr: 0x1000109D0, symSize: 0x14 }
  - { offset: 0x4A28F, size: 0x8, addend: 0x0, symName: __ZN4core9panicking13assert_failed17h47b41c44d3a3024eE, symObjAddr: 0x31410, symBinAddr: 0x100035A24, symSize: 0x28 }
  - { offset: 0x4A5D9, size: 0x8, addend: 0x0, symName: __ZN5alloc5alloc15exchange_malloc17h9fe58ec767ba37a2E, symObjAddr: 0x38CCC, symBinAddr: 0x100019C28, symSize: 0x48 }
  - { offset: 0x4B422, size: 0x8, addend: 0x0, symName: '__ZN64_$LT$alloc..ffi..c_str..NulError$u20$as$u20$core..fmt..Debug$GT$3fmt17h75be92263e965cd7E', symObjAddr: 0x43CF4, symBinAddr: 0x100020E2C, symSize: 0x4C }
  - { offset: 0x4B798, size: 0x8, addend: 0x0, symName: '__ZN5alloc11collections5btree6remove259_$LT$impl$u20$alloc..collections..btree..node..Handle$LT$alloc..collections..btree..node..NodeRef$LT$alloc..collections..btree..node..marker..Mut$C$K$C$V$C$alloc..collections..btree..node..marker..Leaf$GT$$C$alloc..collections..btree..node..marker..KV$GT$$GT$14remove_leaf_kv17hc040540b7d295007E', symObjAddr: 0x38420, symBinAddr: 0x100019414, symSize: 0x4B0 }
  - { offset: 0x4CBA5, size: 0x8, addend: 0x0, symName: '__ZN5alloc11collections5btree4node29BalancingContext$LT$K$C$V$GT$15bulk_steal_left17heb9065cd1a3c1663E', symObjAddr: 0x36D9C, symBinAddr: 0x100018D14, symSize: 0x234 }
  - { offset: 0x4D0F1, size: 0x8, addend: 0x0, symName: '__ZN5alloc11collections5btree4node29BalancingContext$LT$K$C$V$GT$16bulk_steal_right17h2424b375dd2572b4E', symObjAddr: 0x36FD0, symBinAddr: 0x100018F48, symSize: 0x26C }
  - { offset: 0x4D6DB, size: 0x8, addend: 0x0, symName: '__ZN5alloc11collections5btree4node29BalancingContext$LT$K$C$V$GT$25merge_tracking_child_edge17h3fcafe97b317f84aE', symObjAddr: 0x37504, symBinAddr: 0x1000191B4, symSize: 0x260 }
  - { offset: 0x4DF8E, size: 0x8, addend: 0x0, symName: '__ZN5alloc11collections5btree3map25IntoIter$LT$K$C$V$C$A$GT$10dying_next17h6ee82b05c63fee66E', symObjAddr: 0x36504, symBinAddr: 0x100018904, symSize: 0x208 }
  - { offset: 0x4E342, size: 0x8, addend: 0x0, symName: '__ZN5alloc11collections5btree3map25IntoIter$LT$K$C$V$C$A$GT$10dying_next17hfadb3bd11d4a7958E', symObjAddr: 0x36914, symBinAddr: 0x100018B0C, symSize: 0x208 }
  - { offset: 0x4ED6A, size: 0x8, addend: 0x0, symName: '__ZN5alloc7raw_vec20RawVecInner$LT$A$GT$11finish_grow17h441b9b4fbde47f2aE', symObjAddr: 0x3921C, symBinAddr: 0x100035EEC, symSize: 0xC4 }
  - { offset: 0x4EEF7, size: 0x8, addend: 0x0, symName: '__ZN5alloc7raw_vec20RawVecInner$LT$A$GT$11finish_grow17hb7586dc6391ba44cE', symObjAddr: 0x392E0, symBinAddr: 0x100035FB0, symSize: 0x94 }
  - { offset: 0x4F02E, size: 0x8, addend: 0x0, symName: '__ZN5alloc7raw_vec20RawVecInner$LT$A$GT$14grow_amortized17hc90f9c74d25b56deE', symObjAddr: 0x39374, symBinAddr: 0x100036044, symSize: 0x74 }
  - { offset: 0x4F5E5, size: 0x8, addend: 0x0, symName: '__ZN5alloc7raw_vec19RawVec$LT$T$C$A$GT$8grow_one17h17d7e67dd2bb7f9aE', symObjAddr: 0x38D14, symBinAddr: 0x100035A4C, symSize: 0x68 }
  - { offset: 0x4F669, size: 0x8, addend: 0x0, symName: '__ZN5alloc7raw_vec19RawVec$LT$T$C$A$GT$8grow_one17h1fc1c216b408f5caE', symObjAddr: 0x38D7C, symBinAddr: 0x100035AB4, symSize: 0x68 }
  - { offset: 0x4F6ED, size: 0x8, addend: 0x0, symName: '__ZN5alloc7raw_vec19RawVec$LT$T$C$A$GT$8grow_one17h24d8d3e47375069bE', symObjAddr: 0x38DE4, symBinAddr: 0x100035B1C, symSize: 0x68 }
  - { offset: 0x4F771, size: 0x8, addend: 0x0, symName: '__ZN5alloc7raw_vec19RawVec$LT$T$C$A$GT$8grow_one17h2d2e3d297fbb9178E', symObjAddr: 0x38E4C, symBinAddr: 0x100035B84, symSize: 0x68 }
  - { offset: 0x4F7F5, size: 0x8, addend: 0x0, symName: '__ZN5alloc7raw_vec19RawVec$LT$T$C$A$GT$8grow_one17h2d7c5d487657b76bE', symObjAddr: 0x38EB4, symBinAddr: 0x100035BEC, symSize: 0x68 }
  - { offset: 0x4F879, size: 0x8, addend: 0x0, symName: '__ZN5alloc7raw_vec19RawVec$LT$T$C$A$GT$8grow_one17h47220c17d857d712E', symObjAddr: 0x38F1C, symBinAddr: 0x100035C54, symSize: 0x68 }
  - { offset: 0x4F8FD, size: 0x8, addend: 0x0, symName: '__ZN5alloc7raw_vec19RawVec$LT$T$C$A$GT$8grow_one17h81dd661b3e306168E', symObjAddr: 0x38FEC, symBinAddr: 0x100035CBC, symSize: 0x68 }
  - { offset: 0x4F981, size: 0x8, addend: 0x0, symName: '__ZN5alloc7raw_vec19RawVec$LT$T$C$A$GT$8grow_one17h9bcfbdd164907b76E', symObjAddr: 0x39054, symBinAddr: 0x100035D24, symSize: 0x68 }
  - { offset: 0x4FA05, size: 0x8, addend: 0x0, symName: '__ZN5alloc7raw_vec19RawVec$LT$T$C$A$GT$8grow_one17hb73dc20aa34c7d54E', symObjAddr: 0x390BC, symBinAddr: 0x100035D8C, symSize: 0x68 }
  - { offset: 0x4FA89, size: 0x8, addend: 0x0, symName: '__ZN5alloc7raw_vec19RawVec$LT$T$C$A$GT$8grow_one17he347fb94b853a4abE', symObjAddr: 0x39124, symBinAddr: 0x100035DF4, symSize: 0x68 }
  - { offset: 0x4FB0D, size: 0x8, addend: 0x0, symName: '__ZN5alloc7raw_vec19RawVec$LT$T$C$A$GT$8grow_one17hfbfac0373d9a659fE', symObjAddr: 0x3918C, symBinAddr: 0x100035E5C, symSize: 0x28 }
  - { offset: 0x4FB35, size: 0x8, addend: 0x0, symName: '__ZN5alloc7raw_vec19RawVec$LT$T$C$A$GT$8grow_one17hfeae4276e7b472c7E', symObjAddr: 0x391B4, symBinAddr: 0x100035E84, symSize: 0x68 }
  - { offset: 0x4FE1E, size: 0x8, addend: 0x0, symName: '__ZN5alloc7raw_vec20RawVecInner$LT$A$GT$7reserve21do_reserve_and_handle17h1b5ad6b0965f0e8fE', symObjAddr: 0x393E8, symBinAddr: 0x1000360B8, symSize: 0x8C }
  - { offset: 0x4FFF5, size: 0x8, addend: 0x0, symName: '__ZN58_$LT$alloc..string..String$u20$as$u20$core..fmt..Debug$GT$3fmt17hbe42f1390806e4b3E', symObjAddr: 0x33334, symBinAddr: 0x100018750, symSize: 0x10 }
  - { offset: 0x500AF, size: 0x8, addend: 0x0, symName: '__ZN58_$LT$alloc..string..String$u20$as$u20$core..fmt..Write$GT$10write_char17hc57c8d64329b0eeaE', symObjAddr: 0x33344, symBinAddr: 0x100018760, symSize: 0x120 }
  - { offset: 0x5024E, size: 0x8, addend: 0x0, symName: '__ZN58_$LT$alloc..string..String$u20$as$u20$core..fmt..Write$GT$9write_str17h478ac17d02959229E', symObjAddr: 0x33464, symBinAddr: 0x100018880, symSize: 0x80 }
  - { offset: 0x503A7, size: 0x8, addend: 0x0, symName: '__ZN60_$LT$alloc..string..String$u20$as$u20$core..fmt..Display$GT$3fmt17h645b730130406905E', symObjAddr: 0x4031C, symBinAddr: 0x100020B18, symSize: 0x10 }
  - { offset: 0x507D1, size: 0x8, addend: 0x0, symName: '__ZN5alloc4sync16Arc$LT$T$C$A$GT$9drop_slow17h278c293030dad127E', symObjAddr: 0x388D0, symBinAddr: 0x1000198C4, symSize: 0x98 }
  - { offset: 0x50972, size: 0x8, addend: 0x0, symName: '__ZN5alloc4sync16Arc$LT$T$C$A$GT$9drop_slow17h2b4287324ce66e56E', symObjAddr: 0x38968, symBinAddr: 0x10001995C, symSize: 0xA0 }
  - { offset: 0x50C6B, size: 0x8, addend: 0x0, symName: '__ZN5alloc4sync16Arc$LT$T$C$A$GT$9drop_slow17h381a557efa9838c6E', symObjAddr: 0x38A08, symBinAddr: 0x1000199FC, symSize: 0x70 }
  - { offset: 0x50E37, size: 0x8, addend: 0x0, symName: '__ZN5alloc4sync16Arc$LT$T$C$A$GT$9drop_slow17h9408959318c88c03E', symObjAddr: 0x38B10, symBinAddr: 0x100019A6C, symSize: 0xC0 }
  - { offset: 0x51160, size: 0x8, addend: 0x0, symName: '__ZN5alloc4sync16Arc$LT$T$C$A$GT$9drop_slow17ha9795a83feab665aE', symObjAddr: 0x38BD0, symBinAddr: 0x100019B2C, symSize: 0x2C }
  - { offset: 0x5123D, size: 0x8, addend: 0x0, symName: '__ZN5alloc4sync16Arc$LT$T$C$A$GT$9drop_slow17he2b95a828ad0180dE', symObjAddr: 0x38BFC, symBinAddr: 0x100019B58, symSize: 0xD0 }
  - { offset: 0x51BB1, size: 0x8, addend: 0x0, symName: __ZN6object4read7archive13ArchiveMember12parse_aixbig17h20e2e7b370046af7E, symObjAddr: 0x45710, symBinAddr: 0x1000212EC, symSize: 0x14C }
  - { offset: 0x51E1C, size: 0x8, addend: 0x0, symName: __ZN6object4read7archive13ArchiveMember5parse17h498ce85341770f37E, symObjAddr: 0x4585C, symBinAddr: 0x100021438, symSize: 0x2F4 }
  - { offset: 0x524FB, size: 0x8, addend: 0x0, symName: __ZN6object4read7archive23parse_bsd_extended_name17h2ac99f842040d5c4E, symObjAddr: 0x45B50, symBinAddr: 0x10002172C, symSize: 0x2D0 }
  - { offset: 0x52E6C, size: 0x8, addend: 0x0, symName: '__ZN6memchr6memchr6memchr28_$u7b$$u7b$closure$u7d$$u7d$17h3cce7eb5508d54fbE', symObjAddr: 0x454B4, symBinAddr: 0x100021090, symSize: 0x25C }
  - { offset: 0x53624, size: 0x8, addend: 0x0, symName: '__ZN9addr2line4unit16ResUnit$LT$R$GT$25find_function_or_location28_$u7b$$u7b$closure$u7d$$u7d$17h31dee647d32e60fcE', symObjAddr: 0x4BE04, symBinAddr: 0x10002364C, symSize: 0x318 }
  - { offset: 0x539B2, size: 0x8, addend: 0x0, symName: '__ZN9addr2line4unit16ResUnit$LT$R$GT$25find_function_or_location17h4dbedcfcf7bd22d5E', symObjAddr: 0x4BA98, symBinAddr: 0x1000232E0, symSize: 0x36C }
  - { offset: 0x53EA6, size: 0x8, addend: 0x0, symName: '__ZN9addr2line16Context$LT$R$GT$9find_unit17h3ccb27eee54213b4E', symObjAddr: 0x4B4CC, symBinAddr: 0x100022D14, symSize: 0x15C }
  - { offset: 0x54023, size: 0x8, addend: 0x0, symName: '__ZN9addr2line6lookup30LoopingLookup$LT$T$C$L$C$F$GT$10new_lookup17h2aa4e923480c1efeE', symObjAddr: 0x4C3DC, symBinAddr: 0x100023C24, symSize: 0x430 }
  - { offset: 0x545AA, size: 0x8, addend: 0x0, symName: __ZN9addr2line4line11render_file17h52bd848d4b267721E, symObjAddr: 0x4B628, symBinAddr: 0x100022E70, symSize: 0x470 }
  - { offset: 0x54F5E, size: 0x8, addend: 0x0, symName: '__ZN9addr2line8function17Function$LT$R$GT$14parse_children17h032dad11692b7903E', symObjAddr: 0x4CB78, symBinAddr: 0x1000243C0, symSize: 0xE28 }
  - { offset: 0x567EE, size: 0x8, addend: 0x0, symName: __ZN9addr2line8function10name_entry17hf875c8c727a19113E, symObjAddr: 0x4C80C, symBinAddr: 0x100024054, symSize: 0x36C }
  - { offset: 0x56CE4, size: 0x8, addend: 0x0, symName: __ZN9addr2line8function9name_attr17h597e50fe879fb404E, symObjAddr: 0x4D9A0, symBinAddr: 0x1000251E8, symSize: 0x1C0 }
  - { offset: 0x56ECF, size: 0x8, addend: 0x0, symName: '__ZN9addr2line5frame18FrameIter$LT$R$GT$4next17h1709594cc61ed304E', symObjAddr: 0x4C11C, symBinAddr: 0x100023964, symSize: 0x2C0 }
  - { offset: 0x577C1, size: 0x8, addend: 0x0, symName: '__ZN5gimli4read5dwarf14Dwarf$LT$R$GT$11attr_string17h222b7bc9dcc654d7E', symObjAddr: 0x3E520, symBinAddr: 0x10001ED1C, symSize: 0x220 }
  - { offset: 0x57E73, size: 0x8, addend: 0x0, symName: '__ZN5gimli4read5dwarf13Unit$LT$R$GT$3new17h16886524465cb820E', symObjAddr: 0x3C8F0, symBinAddr: 0x10001D0EC, symSize: 0x1C30 }
  - { offset: 0x5B537, size: 0x8, addend: 0x0, symName: '__ZN5gimli4read7aranges30ArangeHeader$LT$R$C$Offset$GT$5parse17hbc68fdb39114f204E', symObjAddr: 0x3F3A0, symBinAddr: 0x10001FB9C, symSize: 0x2A8 }
  - { offset: 0x5BF2C, size: 0x8, addend: 0x0, symName: '__ZN5gimli4read4unit18Attribute$LT$R$GT$5value17h30092c577c9164faE', symObjAddr: 0x3B9A4, symBinAddr: 0x10001C1A0, symSize: 0x654 }
  - { offset: 0x5C27D, size: 0x8, addend: 0x0, symName: '__ZN90_$LT$gimli..read..unit..AttributeValue$LT$R$C$Offset$GT$$u20$as$u20$core..clone..Clone$GT$5clone17h60a2cd0527f4fe9aE', symObjAddr: 0x4A1F0, symBinAddr: 0x100022478, symSize: 0x68 }
  - { offset: 0x5C2D8, size: 0x8, addend: 0x0, symName: '__ZN5gimli4read4unit32AttributeValue$LT$R$C$Offset$GT$8u8_value17h4870e6444489794bE', symObjAddr: 0x3C2B0, symBinAddr: 0x10001CAAC, symSize: 0x94 }
  - { offset: 0x5C30E, size: 0x8, addend: 0x0, symName: '__ZN5gimli4read4unit32AttributeValue$LT$R$C$Offset$GT$9u16_value17h2534162b0122c411E', symObjAddr: 0x3C344, symBinAddr: 0x10001CB40, symSize: 0x94 }
  - { offset: 0x5C385, size: 0x8, addend: 0x0, symName: __ZN5gimli4read4unit15parse_attribute17hb69c20acc490ae3bE, symObjAddr: 0x3A5C4, symBinAddr: 0x10001ADC0, symSize: 0xF74 }
  - { offset: 0x5EC06, size: 0x8, addend: 0x0, symName: __ZN5gimli4read4unit15skip_attributes17h66fbf4ab02bc77c4E, symObjAddr: 0x3B538, symBinAddr: 0x10001BD34, symSize: 0x46C }
  - { offset: 0x5F4CF, size: 0x8, addend: 0x0, symName: '__ZN5gimli4read4unit22EntriesCursor$LT$R$GT$10next_entry17h9e1595502734b35bE', symObjAddr: 0x3BFF8, symBinAddr: 0x10001C7F4, symSize: 0x2B8 }
  - { offset: 0x5FA87, size: 0x8, addend: 0x0, symName: '__ZN5gimli4read4unit33DebugInfoUnitHeadersIter$LT$R$GT$4next17h29dca174ad6a9a09E', symObjAddr: 0x3C3D8, symBinAddr: 0x10001CBD4, symSize: 0x518 }
  - { offset: 0x60C6C, size: 0x8, addend: 0x0, symName: __ZN5gimli4read6reader6Reader11read_offset17h7caa668faa7ebe90E, symObjAddr: 0x3EEEC, symBinAddr: 0x10001F6E8, symSize: 0xB4 }
  - { offset: 0x60E61, size: 0x8, addend: 0x0, symName: __ZN5gimli4read6reader6Reader12read_sleb12817h1f5eb4b125823fb9E, symObjAddr: 0x3EFA0, symBinAddr: 0x10001F79C, symSize: 0x23C }
  - { offset: 0x60F2D, size: 0x8, addend: 0x0, symName: __ZN5gimli4read6reader6Reader12read_uleb12817h81cacceb6ecaefb1E, symObjAddr: 0x3F1DC, symBinAddr: 0x10001F9D8, symSize: 0xB8 }
  - { offset: 0x60FE9, size: 0x8, addend: 0x0, symName: __ZN5gimli4read6reader6Reader17read_sized_offset17hd68c077ac6b336aaE, symObjAddr: 0x3F294, symBinAddr: 0x10001FA90, symSize: 0x10C }
  - { offset: 0x6160B, size: 0x8, addend: 0x0, symName: '__ZN5gimli4read8rnglists20RngListIter$LT$R$GT$4next17h2e22279d7463f130E', symObjAddr: 0x3F648, symBinAddr: 0x10001FE44, symSize: 0xCD4 }
  - { offset: 0x63DF7, size: 0x8, addend: 0x0, symName: '__ZN5gimli4read5index18UnitIndex$LT$R$GT$5parse17h0d943a2c9c6d0643E', symObjAddr: 0x3E740, symBinAddr: 0x10001EF3C, symSize: 0x7AC }
  - { offset: 0x644B2, size: 0x8, addend: 0x0, symName: '__ZN5gimli4read4line27FileEntry$LT$R$C$Offset$GT$5parse17hd354de03973f26edE', symObjAddr: 0x3A3A8, symBinAddr: 0x10001ABA4, symSize: 0x21C }
  - { offset: 0x64770, size: 0x8, addend: 0x0, symName: __ZN5gimli4read4line13parse_file_v517h1cbcd7fb81020cd4E, symObjAddr: 0x39474, symBinAddr: 0x100019C70, symSize: 0x28C }
  - { offset: 0x64902, size: 0x8, addend: 0x0, symName: __ZN5gimli4read4line15FileEntryFormat5parse17hae68745c562a24f3E, symObjAddr: 0x39700, symBinAddr: 0x100019EFC, symSize: 0x350 }
  - { offset: 0x650BB, size: 0x8, addend: 0x0, symName: __ZN5gimli4read4line15parse_attribute17h861988a5cbd4db21E, symObjAddr: 0x39A50, symBinAddr: 0x10001A24C, symSize: 0x874 }
  - { offset: 0x66661, size: 0x8, addend: 0x0, symName: __ZN5gimli4read4line18parse_directory_v517h063b2fff361172c4E, symObjAddr: 0x3A2C4, symBinAddr: 0x10001AAC0, symSize: 0xE4 }
  - { offset: 0x66734, size: 0x8, addend: 0x0, symName: '__ZN85_$LT$gimli..read..line..FileEntry$LT$R$C$Offset$GT$$u20$as$u20$core..clone..Clone$GT$5clone17hd65837d060ba172cE', symObjAddr: 0x49AF8, symBinAddr: 0x100022260, symSize: 0x1D4 }
  - { offset: 0x6696C, size: 0x8, addend: 0x0, symName: _OUTLINED_FUNCTION_0, symObjAddr: 0x4DFE4, symBinAddr: 0x100025720, symSize: 0xC }
  - { offset: 0x66984, size: 0x8, addend: 0x0, symName: _OUTLINED_FUNCTION_1, symObjAddr: 0x4DFF0, symBinAddr: 0x10002572C, symSize: 0x8 }
  - { offset: 0x6699C, size: 0x8, addend: 0x0, symName: _OUTLINED_FUNCTION_2, symObjAddr: 0x4DFF8, symBinAddr: 0x100025734, symSize: 0xC }
  - { offset: 0x669B4, size: 0x8, addend: 0x0, symName: _OUTLINED_FUNCTION_3, symObjAddr: 0x4E004, symBinAddr: 0x100025740, symSize: 0xC }
  - { offset: 0x669CC, size: 0x8, addend: 0x0, symName: _OUTLINED_FUNCTION_4, symObjAddr: 0x4E010, symBinAddr: 0x10002574C, symSize: 0xC }
  - { offset: 0x669E4, size: 0x8, addend: 0x0, symName: _OUTLINED_FUNCTION_5, symObjAddr: 0x4E01C, symBinAddr: 0x100025758, symSize: 0xC }
  - { offset: 0x669FC, size: 0x8, addend: 0x0, symName: _OUTLINED_FUNCTION_6, symObjAddr: 0x4E028, symBinAddr: 0x100025764, symSize: 0xC }
  - { offset: 0x66A14, size: 0x8, addend: 0x0, symName: _OUTLINED_FUNCTION_7, symObjAddr: 0x4E034, symBinAddr: 0x100025770, symSize: 0xC }
  - { offset: 0x66A2C, size: 0x8, addend: 0x0, symName: _OUTLINED_FUNCTION_8, symObjAddr: 0x4E040, symBinAddr: 0x10002577C, symSize: 0x10 }
  - { offset: 0x66A44, size: 0x8, addend: 0x0, symName: _OUTLINED_FUNCTION_9, symObjAddr: 0x4E050, symBinAddr: 0x10002578C, symSize: 0x10 }
  - { offset: 0x66A5C, size: 0x8, addend: 0x0, symName: _OUTLINED_FUNCTION_10, symObjAddr: 0x4E060, symBinAddr: 0x10002579C, symSize: 0x18 }
  - { offset: 0x66A74, size: 0x8, addend: 0x0, symName: _OUTLINED_FUNCTION_11, symObjAddr: 0x4E078, symBinAddr: 0x1000257B4, symSize: 0x8 }
  - { offset: 0x66A8C, size: 0x8, addend: 0x0, symName: _OUTLINED_FUNCTION_12, symObjAddr: 0x4E080, symBinAddr: 0x1000257BC, symSize: 0x8 }
  - { offset: 0x66AA4, size: 0x8, addend: 0x0, symName: _OUTLINED_FUNCTION_13, symObjAddr: 0x4E088, symBinAddr: 0x1000257C4, symSize: 0x24 }
  - { offset: 0x66ABC, size: 0x8, addend: 0x0, symName: _OUTLINED_FUNCTION_14, symObjAddr: 0x4E0AC, symBinAddr: 0x1000257E8, symSize: 0x14 }
  - { offset: 0x66AD4, size: 0x8, addend: 0x0, symName: _OUTLINED_FUNCTION_15, symObjAddr: 0x4E0C0, symBinAddr: 0x1000257FC, symSize: 0x8 }
  - { offset: 0x66AEC, size: 0x8, addend: 0x0, symName: _OUTLINED_FUNCTION_16, symObjAddr: 0x4E0C8, symBinAddr: 0x100025804, symSize: 0x10 }
  - { offset: 0x66B04, size: 0x8, addend: 0x0, symName: _OUTLINED_FUNCTION_17, symObjAddr: 0x4E0D8, symBinAddr: 0x100025814, symSize: 0x10 }
  - { offset: 0x66B1C, size: 0x8, addend: 0x0, symName: _OUTLINED_FUNCTION_18, symObjAddr: 0x4E0E8, symBinAddr: 0x100025824, symSize: 0x8 }
  - { offset: 0x66B34, size: 0x8, addend: 0x0, symName: _OUTLINED_FUNCTION_19, symObjAddr: 0x4E0F0, symBinAddr: 0x10002582C, symSize: 0x8 }
  - { offset: 0x66B4C, size: 0x8, addend: 0x0, symName: _OUTLINED_FUNCTION_20, symObjAddr: 0x4E0F8, symBinAddr: 0x100025834, symSize: 0xC }
  - { offset: 0x66B64, size: 0x8, addend: 0x0, symName: _OUTLINED_FUNCTION_21, symObjAddr: 0x4E104, symBinAddr: 0x100025840, symSize: 0x8 }
  - { offset: 0x66B7C, size: 0x8, addend: 0x0, symName: _OUTLINED_FUNCTION_22, symObjAddr: 0x4E10C, symBinAddr: 0x100025848, symSize: 0x10 }
  - { offset: 0x66B94, size: 0x8, addend: 0x0, symName: _OUTLINED_FUNCTION_23, symObjAddr: 0x4E11C, symBinAddr: 0x100025858, symSize: 0x18 }
  - { offset: 0x66BAC, size: 0x8, addend: 0x0, symName: _OUTLINED_FUNCTION_24, symObjAddr: 0x4E134, symBinAddr: 0x100025870, symSize: 0x8 }
  - { offset: 0x66BC4, size: 0x8, addend: 0x0, symName: _OUTLINED_FUNCTION_25, symObjAddr: 0x4E13C, symBinAddr: 0x100025878, symSize: 0x8 }
  - { offset: 0x66BDC, size: 0x8, addend: 0x0, symName: _OUTLINED_FUNCTION_26, symObjAddr: 0x4E144, symBinAddr: 0x100025880, symSize: 0xC }
  - { offset: 0x66BF4, size: 0x8, addend: 0x0, symName: _OUTLINED_FUNCTION_27, symObjAddr: 0x4E150, symBinAddr: 0x10002588C, symSize: 0x8 }
  - { offset: 0x66C0C, size: 0x8, addend: 0x0, symName: _OUTLINED_FUNCTION_28, symObjAddr: 0x4E158, symBinAddr: 0x100025894, symSize: 0xC }
  - { offset: 0x66C24, size: 0x8, addend: 0x0, symName: _OUTLINED_FUNCTION_29, symObjAddr: 0x4E164, symBinAddr: 0x1000258A0, symSize: 0xC }
  - { offset: 0x66C3C, size: 0x8, addend: 0x0, symName: _OUTLINED_FUNCTION_30, symObjAddr: 0x4E170, symBinAddr: 0x1000258AC, symSize: 0x8 }
  - { offset: 0x66C54, size: 0x8, addend: 0x0, symName: _OUTLINED_FUNCTION_31, symObjAddr: 0x4E178, symBinAddr: 0x1000258B4, symSize: 0x8 }
  - { offset: 0x66C6C, size: 0x8, addend: 0x0, symName: _OUTLINED_FUNCTION_32, symObjAddr: 0x4E180, symBinAddr: 0x1000258BC, symSize: 0xC }
  - { offset: 0x66C84, size: 0x8, addend: 0x0, symName: _OUTLINED_FUNCTION_33, symObjAddr: 0x4E18C, symBinAddr: 0x1000258C8, symSize: 0xC }
  - { offset: 0x66C9C, size: 0x8, addend: 0x0, symName: _OUTLINED_FUNCTION_34, symObjAddr: 0x4E198, symBinAddr: 0x1000258D4, symSize: 0x8 }
  - { offset: 0x66CB4, size: 0x8, addend: 0x0, symName: _OUTLINED_FUNCTION_35, symObjAddr: 0x4E1A0, symBinAddr: 0x1000258DC, symSize: 0xC }
  - { offset: 0x66CCC, size: 0x8, addend: 0x0, symName: _OUTLINED_FUNCTION_36, symObjAddr: 0x4E1AC, symBinAddr: 0x1000258E8, symSize: 0x10 }
  - { offset: 0x66CE4, size: 0x8, addend: 0x0, symName: _OUTLINED_FUNCTION_37, symObjAddr: 0x4E1BC, symBinAddr: 0x1000258F8, symSize: 0xC }
  - { offset: 0x66CFC, size: 0x8, addend: 0x0, symName: _OUTLINED_FUNCTION_38, symObjAddr: 0x4E1C8, symBinAddr: 0x100025904, symSize: 0xC }
  - { offset: 0x66D14, size: 0x8, addend: 0x0, symName: _OUTLINED_FUNCTION_39, symObjAddr: 0x4E1D4, symBinAddr: 0x100025910, symSize: 0x14 }
  - { offset: 0x66D2C, size: 0x8, addend: 0x0, symName: _OUTLINED_FUNCTION_40, symObjAddr: 0x4E1E8, symBinAddr: 0x100025924, symSize: 0xC }
  - { offset: 0x66D44, size: 0x8, addend: 0x0, symName: _OUTLINED_FUNCTION_41, symObjAddr: 0x4E1F4, symBinAddr: 0x100025930, symSize: 0x14 }
  - { offset: 0x66D5C, size: 0x8, addend: 0x0, symName: _OUTLINED_FUNCTION_42, symObjAddr: 0x4E208, symBinAddr: 0x100025944, symSize: 0x14 }
  - { offset: 0x66D74, size: 0x8, addend: 0x0, symName: _OUTLINED_FUNCTION_43, symObjAddr: 0x4E21C, symBinAddr: 0x100025958, symSize: 0x14 }
  - { offset: 0x66DA9, size: 0x8, addend: 0x0, symName: __RNvCsdBezzDwma51_7___rustc18___rust_start_panic, symObjAddr: 0x0, symBinAddr: 0x10002596C, symSize: 0xA0 }
  - { offset: 0x66E79, size: 0x8, addend: 0x0, symName: __ZN12panic_unwind3imp5panic17exception_cleanup17hbf73f53a0f288cb0E, symObjAddr: 0x108, symBinAddr: 0x100025A74, symSize: 0x18 }
  - { offset: 0x66E94, size: 0x8, addend: 0x0, symName: __RNvCsdBezzDwma51_7___rustc18___rust_start_panic, symObjAddr: 0x0, symBinAddr: 0x10002596C, symSize: 0xA0 }
  - { offset: 0x66F1D, size: 0x8, addend: 0x0, symName: __RNvCsdBezzDwma51_7___rustc20___rust_panic_cleanup, symObjAddr: 0xA0, symBinAddr: 0x100025A0C, symSize: 0x68 }
  - { offset: 0x6700D, size: 0x8, addend: 0x0, symName: '__ZN4core3ptr49drop_in_place$LT$panic_unwind..imp..Exception$GT$17h7433dd8723c9baf9E', symObjAddr: 0x120, symBinAddr: 0x100025A8C, symSize: 0x78 }
  - { offset: 0x67112, size: 0x8, addend: 0x0, symName: '__ZN4core3ptr74drop_in_place$LT$alloc..boxed..Box$LT$panic_unwind..imp..Exception$GT$$GT$17h265b32606375c8d6E', symObjAddr: 0x198, symBinAddr: 0x100025B04, symSize: 0x8C }
  - { offset: 0x67398, size: 0x8, addend: 0x0, symName: __ZN5alloc5alloc18handle_alloc_error17hb1cae578948d88efE, symObjAddr: 0x2EC4, symBinAddr: 0x1000362A4, symSize: 0x18 }
  - { offset: 0x673EE, size: 0x8, addend: 0x0, symName: '__ZN254_$LT$alloc..boxed..convert..$LT$impl$u20$core..convert..From$LT$alloc..string..String$GT$$u20$for$u20$alloc..boxed..Box$LT$dyn$u20$core..error..Error$u2b$core..marker..Sync$u2b$core..marker..Send$GT$$GT$..from..StringError$u20$as$u20$core..fmt..Debug$GT$3fmt17hb468421948c1122cE', symObjAddr: 0xD0, symBinAddr: 0x10002D578, symSize: 0x10 }
  - { offset: 0x674BE, size: 0x8, addend: 0x0, symName: '__ZN256_$LT$alloc..boxed..convert..$LT$impl$u20$core..convert..From$LT$alloc..string..String$GT$$u20$for$u20$alloc..boxed..Box$LT$dyn$u20$core..error..Error$u2b$core..marker..Sync$u2b$core..marker..Send$GT$$GT$..from..StringError$u20$as$u20$core..fmt..Display$GT$3fmt17h6615e19ac0589cbcE', symObjAddr: 0xE0, symBinAddr: 0x10002D588, symSize: 0x10 }
  - { offset: 0x6759C, size: 0x8, addend: 0x0, symName: __ZN5alloc3ffi5c_str7CString19_from_vec_unchecked17hcec7c031e216c13bE, symObjAddr: 0x930, symBinAddr: 0x10002D598, symSize: 0x118 }
  - { offset: 0x6789B, size: 0x8, addend: 0x0, symName: '__ZN81_$LT$$RF$$u5b$u8$u5d$$u20$as$u20$alloc..ffi..c_str..CString..new..SpecNewImpl$GT$13spec_new_impl17h4690d38f343fb72cE', symObjAddr: 0x516C, symBinAddr: 0x10002D960, symSize: 0x114 }
  - { offset: 0x67C47, size: 0x8, addend: 0x0, symName: '__ZN5alloc7raw_vec20RawVecInner$LT$A$GT$11finish_grow17h2c551b3139b834e1E', symObjAddr: 0x484C, symBinAddr: 0x1000362F0, symSize: 0x8C }
  - { offset: 0x67E17, size: 0x8, addend: 0x0, symName: __ZN5alloc7raw_vec12handle_error17h2d2c5c9552d6042aE, symObjAddr: 0x47B8, symBinAddr: 0x1000362BC, symSize: 0x14 }
  - { offset: 0x67E5D, size: 0x8, addend: 0x0, symName: __ZN5alloc7raw_vec17capacity_overflow17h7291b9950a4872d0E, symObjAddr: 0x47CC, symBinAddr: 0x1000362D0, symSize: 0x20 }
  - { offset: 0x67E8E, size: 0x8, addend: 0x0, symName: '__ZN5alloc7raw_vec20RawVecInner$LT$A$GT$7reserve21do_reserve_and_handle17h4e3119c4b0885fb3E', symObjAddr: 0x48D8, symBinAddr: 0x10003637C, symSize: 0x78 }
  - { offset: 0x680D7, size: 0x8, addend: 0x0, symName: __ZN5alloc6string6String15from_utf8_lossy17hcb81682812c4da7aE, symObjAddr: 0x3E04, symBinAddr: 0x10002D724, symSize: 0x228 }
  - { offset: 0x68626, size: 0x8, addend: 0x0, symName: '__ZN98_$LT$alloc..string..String$u20$as$u20$core..convert..From$LT$alloc..borrow..Cow$LT$str$GT$$GT$$GT$4from17h067ec7c7e333fc1aE', symObjAddr: 0x58C4, symBinAddr: 0x10002DA74, symSize: 0x94 }
  - { offset: 0x687BB, size: 0x8, addend: 0x0, symName: __ZN5alloc4sync32arcinner_layout_for_value_layout17hd8a53971837fc177E, symObjAddr: 0x2070, symBinAddr: 0x10002D6B0, symSize: 0x74 }
  - { offset: 0x68ACB, size: 0x8, addend: 0x0, symName: '__ZN69_$LT$core..alloc..layout..LayoutError$u20$as$u20$core..fmt..Debug$GT$3fmt17h1fbec27e86c2f68aE', symObjAddr: 0x4C30, symBinAddr: 0x10002D94C, symSize: 0x14 }
  - { offset: 0x68B6E, size: 0x8, addend: 0x0, symName: '__ZN71_$LT$core..ops..range..Range$LT$Idx$GT$$u20$as$u20$core..fmt..Debug$GT$3fmt17h02b557e7679e745fE', symObjAddr: 0x1BEDC, symBinAddr: 0x100032168, symSize: 0x5C }
  - { offset: 0x68D96, size: 0x8, addend: 0x0, symName: '__ZN4core4char7methods22_$LT$impl$u20$char$GT$16escape_debug_ext17h92bcef5bd66e53cdE', symObjAddr: 0x15128, symBinAddr: 0x1000316F8, symSize: 0x284 }
  - { offset: 0x69356, size: 0x8, addend: 0x0, symName: __ZN4core6option13unwrap_failed17h256cedb8a2d2ba0aE, symObjAddr: 0x15938, symBinAddr: 0x100036548, symSize: 0x1C }
  - { offset: 0x69739, size: 0x8, addend: 0x0, symName: __ZN4core5slice5index16slice_index_fail8do_panic7runtime17h2941f15caa8f5f67E, symObjAddr: 0x15664, symBinAddr: 0x1000364A0, symSize: 0x38 }
  - { offset: 0x69753, size: 0x8, addend: 0x0, symName: __ZN4core5slice5index16slice_index_fail8do_panic7runtime17h2e38402e1b088644E, symObjAddr: 0x1569C, symBinAddr: 0x1000364D8, symSize: 0x38 }
  - { offset: 0x6976D, size: 0x8, addend: 0x0, symName: __ZN4core5slice5index16slice_index_fail8do_panic7runtime17he1e2e84c88cb83ddE, symObjAddr: 0x156D4, symBinAddr: 0x100036510, symSize: 0x38 }
  - { offset: 0x69789, size: 0x8, addend: 0x0, symName: __ZN4core5slice5index16slice_index_fail17h88b945c1204cb3a0E, symObjAddr: 0x15620, symBinAddr: 0x10003645C, symSize: 0x44 }
  - { offset: 0x6983B, size: 0x8, addend: 0x0, symName: __ZN4core5slice6memchr14memchr_aligned17hb4aaf9792c60d219E, symObjAddr: 0x1570C, symBinAddr: 0x1000319A8, symSize: 0xDC }
  - { offset: 0x69852, size: 0x8, addend: 0x0, symName: __ZN4core5slice6memchr14memchr_aligned17hb4aaf9792c60d219E, symObjAddr: 0x1570C, symBinAddr: 0x1000319A8, symSize: 0xDC }
  - { offset: 0x69867, size: 0x8, addend: 0x0, symName: __ZN4core5slice6memchr14memchr_aligned17hb4aaf9792c60d219E, symObjAddr: 0x1570C, symBinAddr: 0x1000319A8, symSize: 0xDC }
  - { offset: 0x6987B, size: 0x8, addend: 0x0, symName: __ZN4core5slice6memchr14memchr_aligned17hb4aaf9792c60d219E, symObjAddr: 0x1570C, symBinAddr: 0x1000319A8, symSize: 0xDC }
  - { offset: 0x69890, size: 0x8, addend: 0x0, symName: __ZN4core5slice6memchr14memchr_aligned17hb4aaf9792c60d219E, symObjAddr: 0x1570C, symBinAddr: 0x1000319A8, symSize: 0xDC }
  - { offset: 0x6999B, size: 0x8, addend: 0x0, symName: __ZN4core5slice4sort6shared9smallsort22panic_on_ord_violation17h60cf7da37409d253E, symObjAddr: 0x15524, symBinAddr: 0x10003643C, symSize: 0x20 }
  - { offset: 0x699C2, size: 0x8, addend: 0x0, symName: __ZN4core5slice4sort6stable5drift11sqrt_approx17h153f8df5fefebe3fE, symObjAddr: 0x15544, symBinAddr: 0x10003197C, symSize: 0x2C }
  - { offset: 0x69AA2, size: 0x8, addend: 0x0, symName: __ZN4core3fmt9Formatter10debug_list17h65a36c1165e97f28E, symObjAddr: 0x96D4, symBinAddr: 0x10002F400, symSize: 0x48 }
  - { offset: 0x69AE1, size: 0x8, addend: 0x0, symName: __ZN4core3fmt9Formatter11debug_tuple17hb0259baadbe51aa0E, symObjAddr: 0x971C, symBinAddr: 0x10002F448, symSize: 0x50 }
  - { offset: 0x69B2D, size: 0x8, addend: 0x0, symName: __ZN4core3fmt9Formatter12debug_struct17hcd6d4aaf1b41bc69E, symObjAddr: 0x976C, symBinAddr: 0x10002F498, symSize: 0x3C }
  - { offset: 0x69B92, size: 0x8, addend: 0x0, symName: __ZN4core3fmt9Formatter12pad_integral17h89f865e3263bbb90E, symObjAddr: 0x9824, symBinAddr: 0x10002F550, symSize: 0x3B4 }
  - { offset: 0x69EA4, size: 0x8, addend: 0x0, symName: __ZN4core3fmt9Formatter25debug_tuple_field2_finish17h7f32a2385157cb0fE, symObjAddr: 0xA190, symBinAddr: 0x10002F904, symSize: 0x1D8 }
  - { offset: 0x6A19B, size: 0x8, addend: 0x0, symName: __ZN4core3fmt9Formatter26debug_struct_field1_finish17h4527f877d8ef3766E, symObjAddr: 0xAF48, symBinAddr: 0x10002FADC, symSize: 0xD0 }
  - { offset: 0x6A270, size: 0x8, addend: 0x0, symName: __ZN4core3fmt9Formatter26debug_struct_field2_finish17h99064e3569e8d319E, symObjAddr: 0xB018, symBinAddr: 0x10002FBAC, symSize: 0x104 }
  - { offset: 0x6A345, size: 0x8, addend: 0x0, symName: __ZN4core3fmt9Formatter3pad17hd79535f23094e6deE, symObjAddr: 0xB62C, symBinAddr: 0x10002FCB0, symSize: 0x304 }
  - { offset: 0x6A6A1, size: 0x8, addend: 0x0, symName: __ZN4core3fmt9Formatter9write_str17h100987724757e743E, symObjAddr: 0xB9DC, symBinAddr: 0x10002FFB4, symSize: 0x10 }
  - { offset: 0x6A70A, size: 0x8, addend: 0x0, symName: __ZN4core3fmt8builders11DebugStruct5field17h4359ec759ee23cd1E, symObjAddr: 0x8C40, symBinAddr: 0x10002F03C, symSize: 0x1B4 }
  - { offset: 0x6A914, size: 0x8, addend: 0x0, symName: __ZN4core3fmt8builders11DebugStruct6finish17h57caff18b552c366E, symObjAddr: 0x8DF4, symBinAddr: 0x10002F1F0, symSize: 0x7C }
  - { offset: 0x6AA31, size: 0x8, addend: 0x0, symName: __ZN4core3fmt8builders10DebugTuple5field17h3e88f6255ea61c1aE, symObjAddr: 0x895C, symBinAddr: 0x10002EE40, symSize: 0x148 }
  - { offset: 0x6ABAE, size: 0x8, addend: 0x0, symName: __ZN4core3fmt8builders10DebugTuple6finish17h6d5ed9e7e74db8a9E, symObjAddr: 0x8AA4, symBinAddr: 0x10002EF88, symSize: 0xB4 }
  - { offset: 0x6ACDF, size: 0x8, addend: 0x0, symName: __ZN4core3fmt8builders8DebugSet5entry17h07d5d618025d5e1cE, symObjAddr: 0x942C, symBinAddr: 0x10002F26C, symSize: 0x148 }
  - { offset: 0x6AEBB, size: 0x8, addend: 0x0, symName: __ZN4core3fmt8builders9DebugList6finish17hd1892c51d7596366E, symObjAddr: 0x9688, symBinAddr: 0x10002F3B4, symSize: 0x4C }
  - { offset: 0x6AF34, size: 0x8, addend: 0x0, symName: '__ZN68_$LT$core..fmt..builders..PadAdapter$u20$as$u20$core..fmt..Write$GT$10write_char17h1821d17c988388d2E', symObjAddr: 0x1AC9C, symBinAddr: 0x100031EA4, symSize: 0x80 }
  - { offset: 0x6AF5C, size: 0x8, addend: 0x0, symName: '__ZN68_$LT$core..fmt..builders..PadAdapter$u20$as$u20$core..fmt..Write$GT$9write_str17h726ed63b2f38f476E', symObjAddr: 0x1AD1C, symBinAddr: 0x100031F24, symSize: 0x244 }
  - { offset: 0x6B218, size: 0x8, addend: 0x0, symName: '__ZN57_$LT$core..fmt..Formatter$u20$as$u20$core..fmt..Write$GT$10write_char17h024479ec111f64b2E', symObjAddr: 0x176E0, symBinAddr: 0x100031E70, symSize: 0x10 }
  - { offset: 0x6B251, size: 0x8, addend: 0x0, symName: '__ZN40_$LT$str$u20$as$u20$core..fmt..Debug$GT$3fmt17h89a2325dadbfa49bE', symObjAddr: 0x2F4, symBinAddr: 0x10002DB08, symSize: 0x398 }
  - { offset: 0x6B658, size: 0x8, addend: 0x0, symName: '__ZN41_$LT$char$u20$as$u20$core..fmt..Debug$GT$3fmt17h6bbbc95002a0a98eE', symObjAddr: 0x68C, symBinAddr: 0x10002DEA0, symSize: 0xA8 }
  - { offset: 0x6B75F, size: 0x8, addend: 0x0, symName: '__ZN42_$LT$$RF$T$u20$as$u20$core..fmt..Debug$GT$3fmt17h01bceee3c142eb1dE', symObjAddr: 0x734, symBinAddr: 0x10002DF48, symSize: 0x8 }
  - { offset: 0x6B773, size: 0x8, addend: 0x0, symName: '__ZN42_$LT$$RF$T$u20$as$u20$core..fmt..Debug$GT$3fmt17h6986d4188c284aeaE', symObjAddr: 0x74C, symBinAddr: 0x10002DF50, symSize: 0x10 }
  - { offset: 0x6B793, size: 0x8, addend: 0x0, symName: '__ZN42_$LT$$RF$T$u20$as$u20$core..fmt..Debug$GT$3fmt17hc5413da44eb32332E', symObjAddr: 0x8D0, symBinAddr: 0x10002DF60, symSize: 0xC }
  - { offset: 0x6B7C1, size: 0x8, addend: 0x0, symName: '__ZN42_$LT$str$u20$as$u20$core..fmt..Display$GT$3fmt17hdf239df79767b34aE', symObjAddr: 0x8E4, symBinAddr: 0x10002DF6C, symSize: 0x14 }
  - { offset: 0x6B7E7, size: 0x8, addend: 0x0, symName: '__ZN43_$LT$char$u20$as$u20$core..fmt..Display$GT$3fmt17hc95cdf1ddabce749E', symObjAddr: 0x92C, symBinAddr: 0x10002DF80, symSize: 0xD4 }
  - { offset: 0x6B85C, size: 0x8, addend: 0x0, symName: '__ZN44_$LT$$RF$T$u20$as$u20$core..fmt..Display$GT$3fmt17hbdebbe6f67a4d75fE', symObjAddr: 0xA74, symBinAddr: 0x10002E054, symSize: 0x10 }
  - { offset: 0x6B8DE, size: 0x8, addend: 0x0, symName: '__ZN4core3fmt3num3imp21_$LT$impl$u20$u32$GT$10_fmt_inner17h9fbebad66d83f704E', symObjAddr: 0x1D60, symBinAddr: 0x10002E208, symSize: 0x1F0 }
  - { offset: 0x6B996, size: 0x8, addend: 0x0, symName: '__ZN4core3fmt3num3imp21_$LT$impl$u20$u64$GT$10_fmt_inner17ha5059e5693e6520bE', symObjAddr: 0x1FAC, symBinAddr: 0x10002E3F8, symSize: 0x1F8 }
  - { offset: 0x6BA4E, size: 0x8, addend: 0x0, symName: '__ZN4core3fmt3num3imp51_$LT$impl$u20$core..fmt..Display$u20$for$u20$u8$GT$3fmt17h3b940b6b577558aaE', symObjAddr: 0x22D0, symBinAddr: 0x10002E5F0, symSize: 0xB0 }
  - { offset: 0x6BB31, size: 0x8, addend: 0x0, symName: '__ZN4core3fmt3num3imp52_$LT$impl$u20$core..fmt..Display$u20$for$u20$i32$GT$3fmt17ha4620fce5b26d59cE', symObjAddr: 0x24A0, symBinAddr: 0x10002E6A0, symSize: 0x6C }
  - { offset: 0x6BBD9, size: 0x8, addend: 0x0, symName: '__ZN4core3fmt3num3imp52_$LT$impl$u20$core..fmt..Display$u20$for$u20$u32$GT$3fmt17h1dd50c12362add9fE', symObjAddr: 0x2680, symBinAddr: 0x10002E70C, symSize: 0x60 }
  - { offset: 0x6BC7F, size: 0x8, addend: 0x0, symName: '__ZN4core3fmt3num3imp52_$LT$impl$u20$core..fmt..Display$u20$for$u20$u64$GT$3fmt17hbb468e040469b4ceE', symObjAddr: 0x26E0, symBinAddr: 0x10002E76C, symSize: 0x60 }
  - { offset: 0x6BD50, size: 0x8, addend: 0x0, symName: '__ZN4core3fmt3num52_$LT$impl$u20$core..fmt..LowerHex$u20$for$u20$u8$GT$3fmt17h37ed4e8cceba62abE', symObjAddr: 0x459C, symBinAddr: 0x10002E9C0, symSize: 0x74 }
  - { offset: 0x6BDBF, size: 0x8, addend: 0x0, symName: '__ZN4core3fmt3num52_$LT$impl$u20$core..fmt..UpperHex$u20$for$u20$u8$GT$3fmt17h115c11cb5928942cE', symObjAddr: 0x4684, symBinAddr: 0x10002EA34, symSize: 0x74 }
  - { offset: 0x6BE40, size: 0x8, addend: 0x0, symName: '__ZN4core3fmt3num53_$LT$impl$u20$core..fmt..LowerHex$u20$for$u20$i32$GT$3fmt17h3a89f03589876880E', symObjAddr: 0x4844, symBinAddr: 0x10002EAA8, symSize: 0x74 }
  - { offset: 0x6BED6, size: 0x8, addend: 0x0, symName: '__ZN4core3fmt3num53_$LT$impl$u20$core..fmt..UpperHex$u20$for$u20$i32$GT$3fmt17h14e3c6b019652814E', symObjAddr: 0x4AFC, symBinAddr: 0x10002EB90, symSize: 0x74 }
  - { offset: 0x6BF5A, size: 0x8, addend: 0x0, symName: '__ZN4core3fmt3num53_$LT$impl$u20$core..fmt..LowerHex$u20$for$u20$u64$GT$3fmt17hd5594916c23a43bdE', symObjAddr: 0x4A14, symBinAddr: 0x10002EB1C, symSize: 0x74 }
  - { offset: 0x6BFC9, size: 0x8, addend: 0x0, symName: '__ZN4core3fmt3num53_$LT$impl$u20$core..fmt..UpperHex$u20$for$u20$u64$GT$3fmt17h4ea083fd6810d5ebE', symObjAddr: 0x4CCC, symBinAddr: 0x10002EC04, symSize: 0x74 }
  - { offset: 0x6C02C, size: 0x8, addend: 0x0, symName: '__ZN4core3fmt3num50_$LT$impl$u20$core..fmt..Debug$u20$for$u20$u64$GT$3fmt17hadc8c1524dbf6e41E', symObjAddr: 0x398C, symBinAddr: 0x10002E7CC, symSize: 0xF4 }
  - { offset: 0x6C159, size: 0x8, addend: 0x0, symName: '__ZN4core3fmt3num52_$LT$impl$u20$core..fmt..Debug$u20$for$u20$usize$GT$3fmt17h5bc13837c07b2293E', symObjAddr: 0x4428, symBinAddr: 0x10002E8C0, symSize: 0x100 }
  - { offset: 0x6C2DE, size: 0x8, addend: 0x0, symName: __ZN4core3fmt17pointer_fmt_inner17hf05b64cdf5a480b0E, symObjAddr: 0xF8C, symBinAddr: 0x10002E154, symSize: 0xB4 }
  - { offset: 0x6C3AE, size: 0x8, addend: 0x0, symName: __ZN4core3fmt5Write9write_fmt17h063d97f8df35bbe6E, symObjAddr: 0x5DA0, symBinAddr: 0x10002EC78, symSize: 0x14 }
  - { offset: 0x6C43B, size: 0x8, addend: 0x0, symName: __ZN4core3fmt5write17hd5926bdf73ee24f4E, symObjAddr: 0x86E8, symBinAddr: 0x10002EC8C, symSize: 0x1B4 }
  - { offset: 0x6C67D, size: 0x8, addend: 0x0, symName: __ZN4core3fmt9Formatter12pad_integral12write_prefix17hebc1dc37e70ccee1E, symObjAddr: 0x97A8, symBinAddr: 0x10002F4D4, symSize: 0x7C }
  - { offset: 0x6C6E2, size: 0x8, addend: 0x0, symName: '__ZN59_$LT$core..fmt..Arguments$u20$as$u20$core..fmt..Display$GT$3fmt17h2b31cb42b3686eabE', symObjAddr: 0x182DC, symBinAddr: 0x100031E80, symSize: 0x10 }
  - { offset: 0x6C7F2, size: 0x8, addend: 0x0, symName: __ZN4core6result13unwrap_failed17hbc9d97d7032fd501E, symObjAddr: 0x15954, symBinAddr: 0x100036564, symSize: 0x48 }
  - { offset: 0x6C9E4, size: 0x8, addend: 0x0, symName: __ZN4core3str5count14do_count_chars17hd1916c92f730a8c1E, symObjAddr: 0x13880, symBinAddr: 0x100030218, symSize: 0x72C }
  - { offset: 0x6CDE7, size: 0x8, addend: 0x0, symName: __ZN4core3str5count23char_count_general_case17h2f8d6c508e57bc8aE, symObjAddr: 0x13FAC, symBinAddr: 0x100030944, symSize: 0x2A8 }
  - { offset: 0x6CE8F, size: 0x8, addend: 0x0, symName: __ZN4core3str16slice_error_fail17hc9b55ae2038fffb6E, symObjAddr: 0x134D8, symBinAddr: 0x1000363F4, symSize: 0xC }
  - { offset: 0x6CEA8, size: 0x8, addend: 0x0, symName: __ZN4core3str19slice_error_fail_rt17h3da01b58ad3afca7E, symObjAddr: 0x13500, symBinAddr: 0x10002FFC4, symSize: 0x254 }
  - { offset: 0x6CFE3, size: 0x8, addend: 0x0, symName: __ZN4core3str7pattern11StrSearcher3new17hb0ec4e7243414bb1E, symObjAddr: 0x14270, symBinAddr: 0x100030BEC, symSize: 0x898 }
  - { offset: 0x6D29E, size: 0x8, addend: 0x0, symName: __ZN4core3str8converts9from_utf817ha54c467cc832e2ffE, symObjAddr: 0x14D7C, symBinAddr: 0x100031484, symSize: 0x274 }
  - { offset: 0x6D2BB, size: 0x8, addend: 0x0, symName: __ZN4core3str8converts9from_utf817ha54c467cc832e2ffE, symObjAddr: 0x14D7C, symBinAddr: 0x100031484, symSize: 0x274 }
  - { offset: 0x6D33B, size: 0x8, addend: 0x0, symName: '__ZN87_$LT$core..str..lossy..Utf8Chunks$u20$as$u20$core..iter..traits..iterator..Iterator$GT$4next17h47a531c52fa2fb09E', symObjAddr: 0x1DDFC, symBinAddr: 0x1000321C4, symSize: 0x1C0 }
  - { offset: 0x6D54F, size: 0x8, addend: 0x0, symName: __ZN4core3ffi5c_str4CStr19from_bytes_with_nul17h20ec8ad284f15b4aE, symObjAddr: 0xDAC, symBinAddr: 0x10002E064, symSize: 0xF0 }
  - { offset: 0x6D56D, size: 0x8, addend: 0x0, symName: __ZN4core3ffi5c_str4CStr19from_bytes_with_nul17h20ec8ad284f15b4aE, symObjAddr: 0xDAC, symBinAddr: 0x10002E064, symSize: 0xF0 }
  - { offset: 0x6D6A9, size: 0x8, addend: 0x0, symName: __ZN4core4cell22panic_already_borrowed8do_panic7runtime17h24d7b37db8bf8117E, symObjAddr: 0x14FFC, symBinAddr: 0x10003640C, symSize: 0x30 }
  - { offset: 0x6D6C5, size: 0x8, addend: 0x0, symName: __ZN4core4cell22panic_already_borrowed17h323724f51fff7f07E, symObjAddr: 0x14FF0, symBinAddr: 0x100036400, symSize: 0xC }
  - { offset: 0x6D6F9, size: 0x8, addend: 0x0, symName: '__ZN65_$LT$core..cell..BorrowMutError$u20$as$u20$core..fmt..Display$GT$3fmt17hae53caa2783e9eb8E', symObjAddr: 0x197F4, symBinAddr: 0x100031E90, symSize: 0x14 }
  - { offset: 0x6D747, size: 0x8, addend: 0x0, symName: __ZN4core7unicode12unicode_data15grapheme_extend11lookup_slow17h8c76a4c164b53d7aE, symObjAddr: 0x15EE0, symBinAddr: 0x100031A84, symSize: 0x108 }
  - { offset: 0x6D926, size: 0x8, addend: 0x0, symName: __ZN4core7unicode9printable12is_printable17h24022bf36d6e9079E, symObjAddr: 0x163FC, symBinAddr: 0x100031B8C, symSize: 0x2E4 }
  - { offset: 0x6DBC4, size: 0x8, addend: 0x0, symName: __ZN4core9panicking11panic_const23panic_const_div_by_zero17h5468caf9f6ab6ef1E, symObjAddr: 0x166E0, symBinAddr: 0x1000365AC, symSize: 0x1C }
  - { offset: 0x6DBDE, size: 0x8, addend: 0x0, symName: __ZN4core9panicking11panic_const23panic_const_rem_by_zero17h051a687871b74827E, symObjAddr: 0x16718, symBinAddr: 0x1000365C8, symSize: 0x1C }
  - { offset: 0x6DBF9, size: 0x8, addend: 0x0, symName: __ZN4core9panicking13assert_failed17h66f199d66209a469E, symObjAddr: 0x16948, symBinAddr: 0x1000365E4, symSize: 0x28 }
  - { offset: 0x6DC14, size: 0x8, addend: 0x0, symName: __ZN4core9panicking13assert_failed17h96e73ed0619033f9E, symObjAddr: 0x16970, symBinAddr: 0x10003660C, symSize: 0x28 }
  - { offset: 0x6DC2E, size: 0x8, addend: 0x0, symName: __ZN4core9panicking14panic_nounwind17hecec4572d31e01ceE, symObjAddr: 0x169C0, symBinAddr: 0x100036634, symSize: 0x20 }
  - { offset: 0x6DC5C, size: 0x8, addend: 0x0, symName: __ZN4core9panicking16panic_in_cleanup17h611124c659c60d5fE, symObjAddr: 0x16A1C, symBinAddr: 0x100036654, symSize: 0x18 }
  - { offset: 0x6DC76, size: 0x8, addend: 0x0, symName: __ZN4core9panicking18panic_bounds_check17hd6142ed38f8c399dE, symObjAddr: 0x16A34, symBinAddr: 0x10003666C, symSize: 0x38 }
  - { offset: 0x6DCA4, size: 0x8, addend: 0x0, symName: __ZN4core9panicking18panic_nounwind_fmt17hfedd79672ae387c8E, symObjAddr: 0x16A6C, symBinAddr: 0x1000366A4, symSize: 0x30 }
  - { offset: 0x6DCE8, size: 0x8, addend: 0x0, symName: __ZN4core9panicking19assert_failed_inner17h2f9ce117ba7393ccE, symObjAddr: 0x16A9C, symBinAddr: 0x1000366D4, symSize: 0xBC }
  - { offset: 0x6DD02, size: 0x8, addend: 0x0, symName: __ZN4core9panicking19panic_cannot_unwind17hf1ae4d338f0b538fE, symObjAddr: 0x16B58, symBinAddr: 0x100036790, symSize: 0x18 }
  - { offset: 0x6DD1C, size: 0x8, addend: 0x0, symName: __ZN4core9panicking26panic_nounwind_nobacktrace17h832f616b590ee4e5E, symObjAddr: 0x16B70, symBinAddr: 0x1000367A8, symSize: 0x20 }
  - { offset: 0x6DD4A, size: 0x8, addend: 0x0, symName: __ZN4core9panicking5panic17h3cdfb4c05efc7823E, symObjAddr: 0x16C1C, symBinAddr: 0x1000367C8, symSize: 0x14 }
  - { offset: 0x6DD78, size: 0x8, addend: 0x0, symName: __ZN4core9panicking9panic_fmt17h702fd765199c1b52E, symObjAddr: 0x16C30, symBinAddr: 0x1000367DC, symSize: 0x28 }
  - { offset: 0x6DDE6, size: 0x8, addend: 0x0, symName: _OUTLINED_FUNCTION_0, symObjAddr: 0x1E020, symBinAddr: 0x100032384, symSize: 0x10 }
...
